   1               		.file	"Caterina.c"
   2               	__SP_H__ = 0x3e
   3               	__SP_L__ = 0x3d
   4               	__SREG__ = 0x3f
   5               	__tmp_reg__ = 0
   6               	__zero_reg__ = 1
   7               		.text
   8               	.Ltext0:
   9               		.cfi_sections	.debug_frame
  10               		.section	.text.FetchNextCommandByte,"ax",@progbits
  12               	FetchNextCommandByte:
  13               	.LFB105:
  14               		.file 1 "Caterina.c"
   1:Caterina.c    **** /*
   2:Caterina.c    ****              LUFA Library
   3:Caterina.c    ****      Copyright (C) Dean Camera, 2011.
   4:Caterina.c    **** 
   5:Caterina.c    ****   dean [at] fourwalledcubicle [dot] com
   6:Caterina.c    ****            www.lufa-lib.org
   7:Caterina.c    **** */
   8:Caterina.c    **** 
   9:Caterina.c    **** /*
  10:Caterina.c    ****   Copyright 2011  Dean Camera (dean [at] fourwalledcubicle [dot] com)
  11:Caterina.c    **** 
  12:Caterina.c    ****   Permission to use, copy, modify, distribute, and sell this
  13:Caterina.c    ****   software and its documentation for any purpose is hereby granted
  14:Caterina.c    ****   without fee, provided that the above copyright notice appear in
  15:Caterina.c    ****   all copies and that both that the copyright notice and this
  16:Caterina.c    ****   permission notice and warranty disclaimer appear in supporting
  17:Caterina.c    ****   documentation, and that the name of the author not be used in
  18:Caterina.c    ****   advertising or publicity pertaining to distribution of the
  19:Caterina.c    ****   software without specific, written prior permission.
  20:Caterina.c    **** 
  21:Caterina.c    ****   The author disclaim all warranties with regard to this
  22:Caterina.c    ****   software, including all implied warranties of merchantability
  23:Caterina.c    ****   and fitness.  In no event shall the author be liable for any
  24:Caterina.c    ****   special, indirect or consequential damages or any damages
  25:Caterina.c    ****   whatsoever resulting from loss of use, data or profits, whether
  26:Caterina.c    ****   in an action of contract, negligence or other tortious action,
  27:Caterina.c    ****   arising out of or in connection with the use or performance of
  28:Caterina.c    ****   this software.
  29:Caterina.c    **** */
  30:Caterina.c    **** 
  31:Caterina.c    **** /** \file
  32:Caterina.c    ****  *
  33:Caterina.c    ****  *  Main source file for the CDC class bootloader. This file contains the complete bootloader logic
  34:Caterina.c    ****  */
  35:Caterina.c    **** 
  36:Caterina.c    **** #define  INCLUDE_FROM_CATERINA_C
  37:Caterina.c    **** #include "Caterina.h"
  38:Caterina.c    **** 
  39:Caterina.c    **** /** Contains the current baud rate and other settings of the first virtual serial port. This must b
  40:Caterina.c    ****  *  operating systems will not open the port unless the settings can be set successfully.
  41:Caterina.c    ****  */
  42:Caterina.c    **** static CDC_LineEncoding_t LineEncoding = { .BaudRateBPS = 0,
  43:Caterina.c    ****                                            .CharFormat  = CDC_LINEENCODING_OneStopBit,
  44:Caterina.c    ****                                            .ParityType  = CDC_PARITY_None,
  45:Caterina.c    ****                                            .DataBits    = 8                            };
  46:Caterina.c    **** 
  47:Caterina.c    **** /** Current address counter. This stores the current address of the FLASH or EEPROM as set by the h
  48:Caterina.c    ****  *  and is used when reading or writing to the AVRs memory (either FLASH or EEPROM depending on the
  49:Caterina.c    ****  *  command.)
  50:Caterina.c    ****  */
  51:Caterina.c    **** static uint32_t CurrAddress;
  52:Caterina.c    **** 
  53:Caterina.c    **** /** Flag to indicate if the bootloader should be running, or should exit and allow the application 
  54:Caterina.c    ****  *  via a watchdog reset. When cleared the bootloader will exit, starting the watchdog and entering
  55:Caterina.c    ****  *  loop until the AVR restarts and the application runs.
  56:Caterina.c    ****  */
  57:Caterina.c    **** static bool RunBootloader = true;
  58:Caterina.c    **** 
  59:Caterina.c    **** // MAH 8/15/12- added this flag to replace the bulky program memory reads to check for the presence
  60:Caterina.c    **** //   at the top of the memory space.
  61:Caterina.c    **** static bool sketchPresent = false;
  62:Caterina.c    **** 
  63:Caterina.c    **** /* Pulse generation counters to keep track of the time remaining for each pulse type */
  64:Caterina.c    **** #define TX_RX_LED_PULSE_PERIOD 100
  65:Caterina.c    **** uint16_t TxLEDPulse = 0; // time remaining for Tx LED pulse
  66:Caterina.c    **** uint16_t RxLEDPulse = 0; // time remaining for Rx LED pulse
  67:Caterina.c    **** 
  68:Caterina.c    **** /* Bootloader timeout timer */
  69:Caterina.c    **** // MAH 8/15/12- add this switch so timeouts work properly when the chip is running at 8MHz instead 
  70:Caterina.c    **** #if F_CPU == 8000000 
  71:Caterina.c    **** #define TIMEOUT_PERIOD	4000
  72:Caterina.c    **** #define EXT_RESET_TIMEOUT_PERIOD	375
  73:Caterina.c    **** #else
  74:Caterina.c    **** #define TIMEOUT_PERIOD  8000
  75:Caterina.c    **** #define EXT_RESET_TIMEOUT_PERIOD  750
  76:Caterina.c    **** #endif
  77:Caterina.c    **** 
  78:Caterina.c    **** // MAH 8/15/12- make this volatile, since we modify it in one place and read it in another, we want
  79:Caterina.c    **** //  sure we're always working on the copy in memory and not an erroneous value stored in a cache so
  80:Caterina.c    **** volatile uint16_t Timeout = 0;
  81:Caterina.c    **** // MAH 8/15/12- added this for delay during startup. Did not use existing Timeout value b/c it only
  82:Caterina.c    **** //  when there's a sketch at the top of the memory.
  83:Caterina.c    **** volatile uint16_t resetTimeout = 0;
  84:Caterina.c    **** 
  85:Caterina.c    **** // MAH 8/15/12- let's make this an 8-bit value instead of 16- that saves on memory because 16-bit a
  86:Caterina.c    **** //  comparison compiles to bulkier code. Note that this does *not* require a change to the Arduino 
  87:Caterina.c    **** //  just sort of ignoring the extra byte that the Arduino core puts at the next location.
  88:Caterina.c    **** uint8_t bootKey = 0x77;
  89:Caterina.c    **** volatile uint8_t *const bootKeyPtr = (volatile uint8_t *)0x0800;
  90:Caterina.c    **** 
  91:Caterina.c    **** void StartSketch(void)
  92:Caterina.c    **** {
  93:Caterina.c    **** 	cli();
  94:Caterina.c    **** 	
  95:Caterina.c    **** 	/* Undo TIMER1 setup and clear the count before running the sketch */
  96:Caterina.c    **** 	TIMSK1 = 0;
  97:Caterina.c    **** 	TCCR1B = 0;
  98:Caterina.c    **** 	// MAH 8/15/12 this clear is removed to save memory. Okay, it
  99:Caterina.c    **** 	//   introduces some inaccuracy in the timer in the sketch, but
 100:Caterina.c    **** 	//   not enough that it really matters.
 101:Caterina.c    **** 	//TCNT1H = 0;		// 16-bit write to TCNT1 requires high byte be written first
 102:Caterina.c    **** 	//TCNT1L = 0;
 103:Caterina.c    **** 	
 104:Caterina.c    **** 	/* Relocate the interrupt vector table to the application section */
 105:Caterina.c    **** 	MCUCR = (1 << IVCE);
 106:Caterina.c    **** 	MCUCR = 0;
 107:Caterina.c    **** 
 108:Caterina.c    **** 	L_LED_OFF();
 109:Caterina.c    **** 	TX_LED_OFF();
 110:Caterina.c    **** 	RX_LED_OFF();
 111:Caterina.c    **** 
 112:Caterina.c    **** 	/* jump to beginning of application space */
 113:Caterina.c    **** 	__asm__ volatile("jmp 0x0000");
 114:Caterina.c    **** 	
 115:Caterina.c    **** }
 116:Caterina.c    **** 
 117:Caterina.c    **** /*	Breathing animation on L LED indicates bootloader is running */
 118:Caterina.c    **** // MAH 8/15/12- Pulled this code inline down below- we only call it once and while inlining it is
 119:Caterina.c    **** //  questionable coding practice, it saves us a few bytes, which is important.
 120:Caterina.c    **** uint16_t LLEDPulse;
 121:Caterina.c    **** /*void LEDPulse(void)
 122:Caterina.c    **** {
 123:Caterina.c    **** 	LLEDPulse++;
 124:Caterina.c    **** 	uint8_t p = LLEDPulse >> 8;
 125:Caterina.c    **** 	if (p > 127)
 126:Caterina.c    **** 		p = 254-p;
 127:Caterina.c    **** 	p += p;
 128:Caterina.c    **** 	if (((uint8_t)LLEDPulse) > p)
 129:Caterina.c    **** 		L_LED_OFF();
 130:Caterina.c    **** 	else
 131:Caterina.c    **** 		L_LED_ON();
 132:Caterina.c    **** }*/
 133:Caterina.c    **** 
 134:Caterina.c    **** /** Main program entry point. This routine configures the hardware required by the bootloader, then
 135:Caterina.c    ****  *  runs the bootloader processing routine until it times out or is instructed to exit.
 136:Caterina.c    ****  */
 137:Caterina.c    **** int main(void)
 138:Caterina.c    **** {
 139:Caterina.c    **** 	/* Save the value of the boot key memory before it is overwritten */
 140:Caterina.c    **** 	uint8_t bootKeyPtrVal = *bootKeyPtr;
 141:Caterina.c    **** 	*bootKeyPtr = 0;
 142:Caterina.c    **** 
 143:Caterina.c    **** 	/* Check the reason for the reset so we can act accordingly */
 144:Caterina.c    **** 	uint8_t  mcusr_state = MCUSR;		// store the initial state of the Status register
 145:Caterina.c    **** 	MCUSR = 0;							// clear all reset flags	
 146:Caterina.c    **** 
 147:Caterina.c    **** 	/* Watchdog may be configured with a 15 ms period so must disable it before going any further */
 148:Caterina.c    **** 	// MAH 8/15/12- I removed this because wdt_disable() is the first thing SetupHardware() does- why
 149:Caterina.c    **** 	//  do it twice right in a row?
 150:Caterina.c    **** 	//wdt_disable();
 151:Caterina.c    **** 	
 152:Caterina.c    **** 	/* Setup hardware required for the bootloader */
 153:Caterina.c    **** 	// MAH 8/15/12- Moved this up to before the bootloader go/no-go decision tree so I could use the
 154:Caterina.c    **** 	//  timer in that decision tree. Removed the USBInit() call from it; if I'm not going to stay in
 155:Caterina.c    **** 	//  the bootloader, there's no point spending the time initializing the USB.
 156:Caterina.c    **** 	// SetupHardware();
 157:Caterina.c    **** 	wdt_disable();
 158:Caterina.c    **** 
 159:Caterina.c    **** 	// Disable clock division 
 160:Caterina.c    **** 	clock_prescale_set(clock_div_1);
 161:Caterina.c    **** 
 162:Caterina.c    **** 	// Relocate the interrupt vector table to the bootloader section
 163:Caterina.c    **** 	MCUCR = (1 << IVCE);
 164:Caterina.c    **** 	MCUCR = (1 << IVSEL);
 165:Caterina.c    **** 	
 166:Caterina.c    **** 	LED_SETUP();
 167:Caterina.c    **** 	CPU_PRESCALE(0); 
 168:Caterina.c    **** 	L_LED_OFF();
 169:Caterina.c    **** 	TX_LED_OFF();
 170:Caterina.c    **** 	RX_LED_OFF();
 171:Caterina.c    **** 	
 172:Caterina.c    **** 	// Initialize TIMER1 to handle bootloader timeout and LED tasks.  
 173:Caterina.c    **** 	// With 16 MHz clock and 1/64 prescaler, timer 1 is clocked at 250 kHz
 174:Caterina.c    **** 	// Our chosen compare match generates an interrupt every 1 ms.
 175:Caterina.c    **** 	// This interrupt is disabled selectively when doing memory reading, erasing,
 176:Caterina.c    **** 	// or writing since SPM has tight timing requirements. 
 177:Caterina.c    **** 
 178:Caterina.c    **** 	OCR1AH = 0;
 179:Caterina.c    **** 	OCR1AL = 250;
 180:Caterina.c    **** 	TIMSK1 = (1 << OCIE1A);					// enable timer 1 output compare A match interrupt
 181:Caterina.c    **** 	TCCR1B = ((1 << CS11) | (1 << CS10));	// 1/64 prescaler on timer 1 input
 182:Caterina.c    **** 	
 183:Caterina.c    **** 	
 184:Caterina.c    **** 	// MAH 8/15/12- this replaces bulky pgm_read_word(0) calls later on, to save memory.
 185:Caterina.c    **** 	if (pgm_read_word(0) != 0xFFFF) sketchPresent = true;
 186:Caterina.c    **** 	
 187:Caterina.c    **** 	// MAH 8/15/12- quite a bit changed in this section- let's just pretend nothing has been reserved
 188:Caterina.c    **** 	//  and all comments throughout are from me.
 189:Caterina.c    **** 	// First case: external reset, bootKey NOT in memory. We'll put the bootKey in memory, then spin
 190:Caterina.c    **** 	//  our wheels for about 750ms, then proceed to the sketch, if there is one. If, during that 750ms
 191:Caterina.c    **** 	//  another external reset occurs, on the next pass through this decision tree, execution will fal
 192:Caterina.c    **** 	//  through to the bootloader.
 193:Caterina.c    **** 	if ( (mcusr_state & (1<<EXTRF)) && (bootKeyPtrVal != bootKey) ) {
 194:Caterina.c    **** 		*bootKeyPtr = bootKey;
 195:Caterina.c    **** 		sei();
 196:Caterina.c    **** 		while (RunBootloader) 
 197:Caterina.c    **** 		{
 198:Caterina.c    **** 			if (resetTimeout > EXT_RESET_TIMEOUT_PERIOD)
 199:Caterina.c    **** 				RunBootloader = false;
 200:Caterina.c    **** 		}
 201:Caterina.c    **** 		cli();
 202:Caterina.c    **** 		*bootKeyPtr = 0;
 203:Caterina.c    **** 		RunBootloader = true;
 204:Caterina.c    **** 		if (sketchPresent) StartSketch();
 205:Caterina.c    **** 	} 
 206:Caterina.c    **** 	// On a power-on reset, we ALWAYS want to go to the sketch. If there is one.
 207:Caterina.c    **** 	else if ( (mcusr_state & (1<<PORF)) && sketchPresent) {	
 208:Caterina.c    **** 		StartSketch();
 209:Caterina.c    **** 	} 
 210:Caterina.c    **** 	// On a watchdog reset, if the bootKey isn't set, and there's a sketch, we should just
 211:Caterina.c    **** 	//  go straight to the sketch.
 212:Caterina.c    **** 	else if ( (mcusr_state & (1<<WDRF) ) && (bootKeyPtrVal != bootKey) && sketchPresent) {	
 213:Caterina.c    **** 		// If it looks like an "accidental" watchdog reset then start the sketch.
 214:Caterina.c    **** 		StartSketch();
 215:Caterina.c    **** 	}
 216:Caterina.c    **** 	
 217:Caterina.c    **** 	// END ALL COMMENTS ON THIS SECTION FROM MAH.
 218:Caterina.c    **** 	
 219:Caterina.c    **** 	/* Initialize USB Subsystem */
 220:Caterina.c    **** 	USB_Init();
 221:Caterina.c    **** 
 222:Caterina.c    **** 	/* Enable global interrupts so that the USB stack can function */
 223:Caterina.c    **** 	sei();
 224:Caterina.c    **** 	
 225:Caterina.c    **** 	Timeout = 0;
 226:Caterina.c    **** 	
 227:Caterina.c    **** 	while (RunBootloader)
 228:Caterina.c    **** 	{
 229:Caterina.c    **** 		CDC_Task();
 230:Caterina.c    **** 		USB_USBTask();
 231:Caterina.c    **** 		/* Time out and start the sketch if one is present */
 232:Caterina.c    **** 		if (Timeout > TIMEOUT_PERIOD)
 233:Caterina.c    **** 			RunBootloader = false;
 234:Caterina.c    **** 			
 235:Caterina.c    **** 		// MAH 8/15/12- This used to be a function call- inlining it saves a few bytes.
 236:Caterina.c    **** 		LLEDPulse++;
 237:Caterina.c    **** 		uint8_t p = LLEDPulse >> 8;
 238:Caterina.c    **** 		if (p > 127)
 239:Caterina.c    **** 			p = 254-p;
 240:Caterina.c    **** 		p += p;
 241:Caterina.c    **** 		if (((uint8_t)LLEDPulse) > p)
 242:Caterina.c    **** 			L_LED_OFF();
 243:Caterina.c    **** 		else
 244:Caterina.c    **** 			L_LED_ON();
 245:Caterina.c    **** 	}
 246:Caterina.c    **** 
 247:Caterina.c    **** 	/* Disconnect from the host - USB interface will be reset later along with the AVR */
 248:Caterina.c    **** 	USB_Detach();
 249:Caterina.c    **** 
 250:Caterina.c    **** 	/* Jump to beginning of application space to run the sketch - do not reset */	
 251:Caterina.c    **** 	StartSketch();
 252:Caterina.c    **** }
 253:Caterina.c    **** 
 254:Caterina.c    **** /** Configures all hardware required for the bootloader. */
 255:Caterina.c    **** 
 256:Caterina.c    **** // MAH 31 Aug 12 Remove this from a call and make it inline code to save a few bytes.
 257:Caterina.c    **** /*void SetupHardware(void)
 258:Caterina.c    **** {
 259:Caterina.c    **** 	// Disable watchdog if enabled by bootloader/fuses
 260:Caterina.c    **** 	// MAH- 31 Aug 12 I am unclear as to what this line of code is expected to
 261:Caterina.c    **** 	//  do. It will clear the WDRF bit, if set, while leaving other reset bits
 262:Caterina.c    **** 	//  alone. However, we already do that immediately upon entering the bootloader,
 263:Caterina.c    **** 	//  so this is just eating memory space.
 264:Caterina.c    **** 	//MCUSR &= ~(1 << WDRF);
 265:Caterina.c    **** 	wdt_disable();
 266:Caterina.c    **** 
 267:Caterina.c    **** 	// Disable clock division 
 268:Caterina.c    **** 	clock_prescale_set(clock_div_1);
 269:Caterina.c    **** 
 270:Caterina.c    **** 	// Relocate the interrupt vector table to the bootloader section
 271:Caterina.c    **** 	MCUCR = (1 << IVCE);
 272:Caterina.c    **** 	MCUCR = (1 << IVSEL);
 273:Caterina.c    **** 	
 274:Caterina.c    **** 	LED_SETUP();
 275:Caterina.c    **** 	CPU_PRESCALE(0); 
 276:Caterina.c    **** 	L_LED_OFF();
 277:Caterina.c    **** 	TX_LED_OFF();
 278:Caterina.c    **** 	RX_LED_OFF();
 279:Caterina.c    **** 	
 280:Caterina.c    **** 	// Initialize TIMER1 to handle bootloader timeout and LED tasks.  
 281:Caterina.c    **** 	// With 16 MHz clock and 1/64 prescaler, timer 1 is clocked at 250 kHz
 282:Caterina.c    **** 	// Our chosen compare match generates an interrupt every 1 ms.
 283:Caterina.c    **** 	// This interrupt is disabled selectively when doing memory reading, erasing,
 284:Caterina.c    **** 	// or writing since SPM has tight timing requirements. 
 285:Caterina.c    **** 
 286:Caterina.c    **** 	OCR1AH = 0;
 287:Caterina.c    **** 	OCR1AL = 250;
 288:Caterina.c    **** 	TIMSK1 = (1 << OCIE1A);					// enable timer 1 output compare A match interrupt
 289:Caterina.c    **** 	TCCR1B = ((1 << CS11) | (1 << CS10));	// 1/64 prescaler on timer 1 input
 290:Caterina.c    **** 	
 291:Caterina.c    **** 	// MAH 8/15/12- Remove the USB_Init() call from here; I want to start the hardware- particularly
 292:Caterina.c    **** 	//  the counter- before I start up the USB support, so I can do the busywait for the second reset
 293:Caterina.c    **** 	//  push.
 294:Caterina.c    **** 
 295:Caterina.c    **** }
 296:Caterina.c    **** */
 297:Caterina.c    **** //uint16_t ctr = 0;
 298:Caterina.c    **** ISR(TIMER1_COMPA_vect, ISR_BLOCK)
 299:Caterina.c    **** {
 300:Caterina.c    **** 	/* Reset counter */
 301:Caterina.c    **** 	TCNT1H = 0;
 302:Caterina.c    **** 	TCNT1L = 0;
 303:Caterina.c    **** 
 304:Caterina.c    **** 	/* Check whether the TX or RX LED one-shot period has elapsed.  if so, turn off the LED */
 305:Caterina.c    **** 	if (TxLEDPulse && !(--TxLEDPulse))
 306:Caterina.c    **** 		TX_LED_OFF();
 307:Caterina.c    **** 	if (RxLEDPulse && !(--RxLEDPulse))
 308:Caterina.c    **** 		RX_LED_OFF();
 309:Caterina.c    **** 		
 310:Caterina.c    **** 	resetTimeout++;
 311:Caterina.c    **** 	if (pgm_read_word(0) != 0xFFFF)
 312:Caterina.c    **** 		Timeout++;
 313:Caterina.c    **** }
 314:Caterina.c    **** 
 315:Caterina.c    **** /** Event handler for the USB_ConfigurationChanged event. This configures the device's endpoints re
 316:Caterina.c    ****  *  to relay data to and from the attached USB host.
 317:Caterina.c    ****  */
 318:Caterina.c    **** void EVENT_USB_Device_ConfigurationChanged(void)
 319:Caterina.c    **** {
 320:Caterina.c    **** 	/* Setup CDC Notification, Rx and Tx Endpoints */
 321:Caterina.c    **** 	Endpoint_ConfigureEndpoint(CDC_NOTIFICATION_EPNUM, EP_TYPE_INTERRUPT,
 322:Caterina.c    **** 	                           ENDPOINT_DIR_IN, CDC_NOTIFICATION_EPSIZE,
 323:Caterina.c    **** 	                           ENDPOINT_BANK_SINGLE);
 324:Caterina.c    **** 
 325:Caterina.c    **** 	Endpoint_ConfigureEndpoint(CDC_TX_EPNUM, EP_TYPE_BULK,
 326:Caterina.c    **** 	                           ENDPOINT_DIR_IN, CDC_TXRX_EPSIZE,
 327:Caterina.c    **** 	                           ENDPOINT_BANK_SINGLE);
 328:Caterina.c    **** 
 329:Caterina.c    **** 	Endpoint_ConfigureEndpoint(CDC_RX_EPNUM, EP_TYPE_BULK,
 330:Caterina.c    **** 	                           ENDPOINT_DIR_OUT, CDC_TXRX_EPSIZE,
 331:Caterina.c    **** 	                           ENDPOINT_BANK_SINGLE);
 332:Caterina.c    **** }
 333:Caterina.c    **** 
 334:Caterina.c    **** /** Event handler for the USB_ControlRequest event. This is used to catch and process control reque
 335:Caterina.c    ****  *  the device from the USB host before passing along unhandled control requests to the library for
 336:Caterina.c    ****  *  internally.
 337:Caterina.c    ****  */
 338:Caterina.c    **** void EVENT_USB_Device_ControlRequest(void)
 339:Caterina.c    **** {
 340:Caterina.c    **** 	/* Ignore any requests that aren't directed to the CDC interface */
 341:Caterina.c    **** 	if ((USB_ControlRequest.bmRequestType & (CONTROL_REQTYPE_TYPE | CONTROL_REQTYPE_RECIPIENT)) !=
 342:Caterina.c    **** 	    (REQTYPE_CLASS | REQREC_INTERFACE))
 343:Caterina.c    **** 	{
 344:Caterina.c    **** 		return;
 345:Caterina.c    **** 	}
 346:Caterina.c    **** 
 347:Caterina.c    **** 	/* Process CDC specific control requests */
 348:Caterina.c    **** 	switch (USB_ControlRequest.bRequest)
 349:Caterina.c    **** 	{
 350:Caterina.c    **** 		case CDC_REQ_GetLineEncoding:
 351:Caterina.c    **** 			if (USB_ControlRequest.bmRequestType == (REQDIR_DEVICETOHOST | REQTYPE_CLASS | REQREC_INTERFACE)
 352:Caterina.c    **** 			{
 353:Caterina.c    **** 				Endpoint_ClearSETUP();
 354:Caterina.c    **** 
 355:Caterina.c    **** 				/* Write the line coding data to the control endpoint */
 356:Caterina.c    **** 				Endpoint_Write_Control_Stream_LE(&LineEncoding, sizeof(CDC_LineEncoding_t));
 357:Caterina.c    **** 				Endpoint_ClearOUT();
 358:Caterina.c    **** 			}
 359:Caterina.c    **** 
 360:Caterina.c    **** 			break;
 361:Caterina.c    **** 		case CDC_REQ_SetLineEncoding:
 362:Caterina.c    **** 			if (USB_ControlRequest.bmRequestType == (REQDIR_HOSTTODEVICE | REQTYPE_CLASS | REQREC_INTERFACE)
 363:Caterina.c    **** 			{
 364:Caterina.c    **** 				Endpoint_ClearSETUP();
 365:Caterina.c    **** 
 366:Caterina.c    **** 				/* Read the line coding data in from the host into the global struct */
 367:Caterina.c    **** 				Endpoint_Read_Control_Stream_LE(&LineEncoding, sizeof(CDC_LineEncoding_t));
 368:Caterina.c    **** 				Endpoint_ClearIN();
 369:Caterina.c    **** 			}
 370:Caterina.c    **** 
 371:Caterina.c    **** 			break;
 372:Caterina.c    **** 	}
 373:Caterina.c    **** }
 374:Caterina.c    **** 
 375:Caterina.c    **** #if !defined(NO_BLOCK_SUPPORT)
 376:Caterina.c    **** /** Reads or writes a block of EEPROM or FLASH memory to or from the appropriate CDC data endpoint,
 377:Caterina.c    ****  *  on the AVR910 protocol command issued.
 378:Caterina.c    ****  *
 379:Caterina.c    ****  *  \param[in] Command  Single character AVR910 protocol command indicating what memory operation t
 380:Caterina.c    ****  */
 381:Caterina.c    **** static void ReadWriteMemoryBlock(const uint8_t Command)
 382:Caterina.c    **** {
 383:Caterina.c    **** 	uint16_t BlockSize;
 384:Caterina.c    **** 	char     MemoryType;
 385:Caterina.c    **** 
 386:Caterina.c    **** 	bool     HighByte = false;
 387:Caterina.c    **** 	uint8_t  LowByte  = 0;
 388:Caterina.c    **** 
 389:Caterina.c    **** 	BlockSize  = (FetchNextCommandByte() << 8);
 390:Caterina.c    **** 	BlockSize |=  FetchNextCommandByte();
 391:Caterina.c    **** 
 392:Caterina.c    **** 	MemoryType =  FetchNextCommandByte();
 393:Caterina.c    **** 
 394:Caterina.c    **** 	if ((MemoryType != 'E') && (MemoryType != 'F'))
 395:Caterina.c    **** 	{
 396:Caterina.c    **** 		/* Send error byte back to the host */
 397:Caterina.c    **** 		WriteNextResponseByte('?');
 398:Caterina.c    **** 
 399:Caterina.c    **** 		return;
 400:Caterina.c    **** 	}
 401:Caterina.c    **** 
 402:Caterina.c    **** 	/* Disable timer 1 interrupt - can't afford to process nonessential interrupts
 403:Caterina.c    **** 	 * while doing SPM tasks */
 404:Caterina.c    **** 	TIMSK1 = 0;
 405:Caterina.c    **** 
 406:Caterina.c    **** 	/* Check if command is to read memory */
 407:Caterina.c    **** 	if (Command == 'g')
 408:Caterina.c    **** 	{		
 409:Caterina.c    **** 		/* Re-enable RWW section */
 410:Caterina.c    **** 		boot_rww_enable();
 411:Caterina.c    **** 
 412:Caterina.c    **** 		while (BlockSize--)
 413:Caterina.c    **** 		{
 414:Caterina.c    **** 			if (MemoryType == 'F')
 415:Caterina.c    **** 			{
 416:Caterina.c    **** 				/* Read the next FLASH byte from the current FLASH page */
 417:Caterina.c    **** 				#if (FLASHEND > 0xFFFF)
 418:Caterina.c    **** 				WriteNextResponseByte(pgm_read_byte_far(CurrAddress | HighByte));
 419:Caterina.c    **** 				#else
 420:Caterina.c    **** 				WriteNextResponseByte(pgm_read_byte(CurrAddress | HighByte));
 421:Caterina.c    **** 				#endif
 422:Caterina.c    **** 
 423:Caterina.c    **** 				/* If both bytes in current word have been read, increment the address counter */
 424:Caterina.c    **** 				if (HighByte)
 425:Caterina.c    **** 				  CurrAddress += 2;
 426:Caterina.c    **** 
 427:Caterina.c    **** 				HighByte = !HighByte;
 428:Caterina.c    **** 			}
 429:Caterina.c    **** 			else
 430:Caterina.c    **** 			{
 431:Caterina.c    **** 				/* Read the next EEPROM byte into the endpoint */
 432:Caterina.c    **** 				WriteNextResponseByte(eeprom_read_byte((uint8_t*)(intptr_t)(CurrAddress >> 1)));
 433:Caterina.c    **** 
 434:Caterina.c    **** 				/* Increment the address counter after use */
 435:Caterina.c    **** 				CurrAddress += 2;
 436:Caterina.c    **** 			}
 437:Caterina.c    **** 		}
 438:Caterina.c    **** 	}
 439:Caterina.c    **** 	else
 440:Caterina.c    **** 	{
 441:Caterina.c    **** 		uint32_t PageStartAddress = CurrAddress;
 442:Caterina.c    **** 
 443:Caterina.c    **** 		if (MemoryType == 'F')
 444:Caterina.c    **** 		{
 445:Caterina.c    **** 			boot_page_erase(PageStartAddress);
 446:Caterina.c    **** 			boot_spm_busy_wait();
 447:Caterina.c    **** 		}
 448:Caterina.c    **** 
 449:Caterina.c    **** 		while (BlockSize--)
 450:Caterina.c    **** 		{
 451:Caterina.c    **** 			if (MemoryType == 'F')
 452:Caterina.c    **** 			{
 453:Caterina.c    **** 				/* If both bytes in current word have been written, increment the address counter */
 454:Caterina.c    **** 				if (HighByte)
 455:Caterina.c    **** 				{
 456:Caterina.c    **** 					/* Write the next FLASH word to the current FLASH page */
 457:Caterina.c    **** 					boot_page_fill(CurrAddress, ((FetchNextCommandByte() << 8) | LowByte));
 458:Caterina.c    **** 
 459:Caterina.c    **** 					/* Increment the address counter after use */
 460:Caterina.c    **** 					CurrAddress += 2;
 461:Caterina.c    **** 				}
 462:Caterina.c    **** 				else
 463:Caterina.c    **** 				{
 464:Caterina.c    **** 					LowByte = FetchNextCommandByte();
 465:Caterina.c    **** 				}
 466:Caterina.c    **** 				
 467:Caterina.c    **** 				HighByte = !HighByte;
 468:Caterina.c    **** 			}
 469:Caterina.c    **** 			else
 470:Caterina.c    **** 			{
 471:Caterina.c    **** 				/* Write the next EEPROM byte from the endpoint */
 472:Caterina.c    **** 				eeprom_write_byte((uint8_t*)((intptr_t)(CurrAddress >> 1)), FetchNextCommandByte());
 473:Caterina.c    **** 
 474:Caterina.c    **** 				/* Increment the address counter after use */
 475:Caterina.c    **** 				CurrAddress += 2;
 476:Caterina.c    **** 			}
 477:Caterina.c    **** 		}
 478:Caterina.c    **** 
 479:Caterina.c    **** 		/* If in FLASH programming mode, commit the page after writing */
 480:Caterina.c    **** 		if (MemoryType == 'F')
 481:Caterina.c    **** 		{
 482:Caterina.c    **** 			/* Commit the flash page to memory */
 483:Caterina.c    **** 			boot_page_write(PageStartAddress);
 484:Caterina.c    **** 
 485:Caterina.c    **** 			/* Wait until write operation has completed */
 486:Caterina.c    **** 			boot_spm_busy_wait();
 487:Caterina.c    **** 		}
 488:Caterina.c    **** 
 489:Caterina.c    **** 		/* Send response byte back to the host */
 490:Caterina.c    **** 		WriteNextResponseByte('\r');
 491:Caterina.c    **** 	}
 492:Caterina.c    **** 
 493:Caterina.c    **** 	/* Re-enable timer 1 interrupt disabled earlier in this routine */	
 494:Caterina.c    **** 	TIMSK1 = (1 << OCIE1A);
 495:Caterina.c    **** }
 496:Caterina.c    **** #endif
 497:Caterina.c    **** 
 498:Caterina.c    **** /** Retrieves the next byte from the host in the CDC data OUT endpoint, and clears the endpoint ban
 499:Caterina.c    ****  *  to allow reception of the next data packet from the host.
 500:Caterina.c    ****  *
 501:Caterina.c    ****  *  \return Next received byte from the host in the CDC data OUT endpoint
 502:Caterina.c    ****  */
 503:Caterina.c    **** static uint8_t FetchNextCommandByte(void)
 504:Caterina.c    **** {
  15               		.loc 1 504 0
  16               		.cfi_startproc
  17               	/* prologue: function */
  18               	/* frame size = 0 */
  19               	/* stack size = 0 */
  20               	.L__stack_usage = 0
  21               	.LVL0:
  22               	.LBB81:
  23               	.LBB82:
  24               		.file 2 "../../LUFA-111009/LUFA/Drivers/USB/Core/AVR8/../AVR8/Endpoint_AVR8.h"
   1:../../LUFA-111009/LUFA/Drivers/USB/Core/AVR8/../AVR8/Endpoint_AVR8.h **** /*
   2:../../LUFA-111009/LUFA/Drivers/USB/Core/AVR8/../AVR8/Endpoint_AVR8.h ****              LUFA Library
   3:../../LUFA-111009/LUFA/Drivers/USB/Core/AVR8/../AVR8/Endpoint_AVR8.h ****      Copyright (C) Dean Camera, 2011.
   4:../../LUFA-111009/LUFA/Drivers/USB/Core/AVR8/../AVR8/Endpoint_AVR8.h **** 
   5:../../LUFA-111009/LUFA/Drivers/USB/Core/AVR8/../AVR8/Endpoint_AVR8.h ****   dean [at] fourwalledcubicle [dot] com
   6:../../LUFA-111009/LUFA/Drivers/USB/Core/AVR8/../AVR8/Endpoint_AVR8.h ****            www.lufa-lib.org
   7:../../LUFA-111009/LUFA/Drivers/USB/Core/AVR8/../AVR8/Endpoint_AVR8.h **** */
   8:../../LUFA-111009/LUFA/Drivers/USB/Core/AVR8/../AVR8/Endpoint_AVR8.h **** 
   9:../../LUFA-111009/LUFA/Drivers/USB/Core/AVR8/../AVR8/Endpoint_AVR8.h **** /*
  10:../../LUFA-111009/LUFA/Drivers/USB/Core/AVR8/../AVR8/Endpoint_AVR8.h ****   Copyright 2011  Dean Camera (dean [at] fourwalledcubicle [dot] com)
  11:../../LUFA-111009/LUFA/Drivers/USB/Core/AVR8/../AVR8/Endpoint_AVR8.h **** 
  12:../../LUFA-111009/LUFA/Drivers/USB/Core/AVR8/../AVR8/Endpoint_AVR8.h ****   Permission to use, copy, modify, distribute, and sell this
  13:../../LUFA-111009/LUFA/Drivers/USB/Core/AVR8/../AVR8/Endpoint_AVR8.h ****   software and its documentation for any purpose is hereby granted
  14:../../LUFA-111009/LUFA/Drivers/USB/Core/AVR8/../AVR8/Endpoint_AVR8.h ****   without fee, provided that the above copyright notice appear in
  15:../../LUFA-111009/LUFA/Drivers/USB/Core/AVR8/../AVR8/Endpoint_AVR8.h ****   all copies and that both that the copyright notice and this
  16:../../LUFA-111009/LUFA/Drivers/USB/Core/AVR8/../AVR8/Endpoint_AVR8.h ****   permission notice and warranty disclaimer appear in supporting
  17:../../LUFA-111009/LUFA/Drivers/USB/Core/AVR8/../AVR8/Endpoint_AVR8.h ****   documentation, and that the name of the author not be used in
  18:../../LUFA-111009/LUFA/Drivers/USB/Core/AVR8/../AVR8/Endpoint_AVR8.h ****   advertising or publicity pertaining to distribution of the
  19:../../LUFA-111009/LUFA/Drivers/USB/Core/AVR8/../AVR8/Endpoint_AVR8.h ****   software without specific, written prior permission.
  20:../../LUFA-111009/LUFA/Drivers/USB/Core/AVR8/../AVR8/Endpoint_AVR8.h **** 
  21:../../LUFA-111009/LUFA/Drivers/USB/Core/AVR8/../AVR8/Endpoint_AVR8.h ****   The author disclaim all warranties with regard to this
  22:../../LUFA-111009/LUFA/Drivers/USB/Core/AVR8/../AVR8/Endpoint_AVR8.h ****   software, including all implied warranties of merchantability
  23:../../LUFA-111009/LUFA/Drivers/USB/Core/AVR8/../AVR8/Endpoint_AVR8.h ****   and fitness.  In no event shall the author be liable for any
  24:../../LUFA-111009/LUFA/Drivers/USB/Core/AVR8/../AVR8/Endpoint_AVR8.h ****   special, indirect or consequential damages or any damages
  25:../../LUFA-111009/LUFA/Drivers/USB/Core/AVR8/../AVR8/Endpoint_AVR8.h ****   whatsoever resulting from loss of use, data or profits, whether
  26:../../LUFA-111009/LUFA/Drivers/USB/Core/AVR8/../AVR8/Endpoint_AVR8.h ****   in an action of contract, negligence or other tortious action,
  27:../../LUFA-111009/LUFA/Drivers/USB/Core/AVR8/../AVR8/Endpoint_AVR8.h ****   arising out of or in connection with the use or performance of
  28:../../LUFA-111009/LUFA/Drivers/USB/Core/AVR8/../AVR8/Endpoint_AVR8.h ****   this software.
  29:../../LUFA-111009/LUFA/Drivers/USB/Core/AVR8/../AVR8/Endpoint_AVR8.h **** */
  30:../../LUFA-111009/LUFA/Drivers/USB/Core/AVR8/../AVR8/Endpoint_AVR8.h **** 
  31:../../LUFA-111009/LUFA/Drivers/USB/Core/AVR8/../AVR8/Endpoint_AVR8.h **** /** \file
  32:../../LUFA-111009/LUFA/Drivers/USB/Core/AVR8/../AVR8/Endpoint_AVR8.h ****  *  \brief USB Endpoint definitions for the AVR8 microcontrollers.
  33:../../LUFA-111009/LUFA/Drivers/USB/Core/AVR8/../AVR8/Endpoint_AVR8.h ****  *  \copydetails Group_EndpointManagement_AVR8
  34:../../LUFA-111009/LUFA/Drivers/USB/Core/AVR8/../AVR8/Endpoint_AVR8.h ****  *
  35:../../LUFA-111009/LUFA/Drivers/USB/Core/AVR8/../AVR8/Endpoint_AVR8.h ****  *  \note This file should not be included directly. It is automatically included as needed by the 
  36:../../LUFA-111009/LUFA/Drivers/USB/Core/AVR8/../AVR8/Endpoint_AVR8.h ****  *        dispatch header located in LUFA/Drivers/USB/USB.h.
  37:../../LUFA-111009/LUFA/Drivers/USB/Core/AVR8/../AVR8/Endpoint_AVR8.h ****  */
  38:../../LUFA-111009/LUFA/Drivers/USB/Core/AVR8/../AVR8/Endpoint_AVR8.h **** 
  39:../../LUFA-111009/LUFA/Drivers/USB/Core/AVR8/../AVR8/Endpoint_AVR8.h **** /** \ingroup Group_EndpointRW
  40:../../LUFA-111009/LUFA/Drivers/USB/Core/AVR8/../AVR8/Endpoint_AVR8.h ****  *  \defgroup Group_EndpointRW_AVR8 Endpoint Data Reading and Writing (AVR8)
  41:../../LUFA-111009/LUFA/Drivers/USB/Core/AVR8/../AVR8/Endpoint_AVR8.h ****  *  \brief Endpoint data read/write definitions for the Atmel AVR8 architecture.
  42:../../LUFA-111009/LUFA/Drivers/USB/Core/AVR8/../AVR8/Endpoint_AVR8.h ****  *
  43:../../LUFA-111009/LUFA/Drivers/USB/Core/AVR8/../AVR8/Endpoint_AVR8.h ****  *  Functions, macros, variables, enums and types related to data reading and writing from and to e
  44:../../LUFA-111009/LUFA/Drivers/USB/Core/AVR8/../AVR8/Endpoint_AVR8.h ****  */
  45:../../LUFA-111009/LUFA/Drivers/USB/Core/AVR8/../AVR8/Endpoint_AVR8.h **** 
  46:../../LUFA-111009/LUFA/Drivers/USB/Core/AVR8/../AVR8/Endpoint_AVR8.h **** /** \ingroup Group_EndpointPrimitiveRW
  47:../../LUFA-111009/LUFA/Drivers/USB/Core/AVR8/../AVR8/Endpoint_AVR8.h ****  *  \defgroup Group_EndpointPrimitiveRW_AVR8 Read/Write of Primitive Data Types (AVR8)
  48:../../LUFA-111009/LUFA/Drivers/USB/Core/AVR8/../AVR8/Endpoint_AVR8.h ****  *  \brief Endpoint primitive read/write definitions for the Atmel AVR8 architecture.
  49:../../LUFA-111009/LUFA/Drivers/USB/Core/AVR8/../AVR8/Endpoint_AVR8.h ****  *
  50:../../LUFA-111009/LUFA/Drivers/USB/Core/AVR8/../AVR8/Endpoint_AVR8.h ****  *  Functions, macros, variables, enums and types related to data reading and writing of primitive 
  51:../../LUFA-111009/LUFA/Drivers/USB/Core/AVR8/../AVR8/Endpoint_AVR8.h ****  *  from and to endpoints.
  52:../../LUFA-111009/LUFA/Drivers/USB/Core/AVR8/../AVR8/Endpoint_AVR8.h ****  */
  53:../../LUFA-111009/LUFA/Drivers/USB/Core/AVR8/../AVR8/Endpoint_AVR8.h **** 
  54:../../LUFA-111009/LUFA/Drivers/USB/Core/AVR8/../AVR8/Endpoint_AVR8.h **** /** \ingroup Group_EndpointPacketManagement
  55:../../LUFA-111009/LUFA/Drivers/USB/Core/AVR8/../AVR8/Endpoint_AVR8.h ****  *  \defgroup Group_EndpointPacketManagement_AVR8 Endpoint Packet Management (AVR8)
  56:../../LUFA-111009/LUFA/Drivers/USB/Core/AVR8/../AVR8/Endpoint_AVR8.h ****  *  \brief Endpoint packet management definitions for the Atmel AVR8 architecture.
  57:../../LUFA-111009/LUFA/Drivers/USB/Core/AVR8/../AVR8/Endpoint_AVR8.h ****  *
  58:../../LUFA-111009/LUFA/Drivers/USB/Core/AVR8/../AVR8/Endpoint_AVR8.h ****  *  Functions, macros, variables, enums and types related to packet management of endpoints.
  59:../../LUFA-111009/LUFA/Drivers/USB/Core/AVR8/../AVR8/Endpoint_AVR8.h ****  */
  60:../../LUFA-111009/LUFA/Drivers/USB/Core/AVR8/../AVR8/Endpoint_AVR8.h **** 
  61:../../LUFA-111009/LUFA/Drivers/USB/Core/AVR8/../AVR8/Endpoint_AVR8.h **** /** \ingroup Group_EndpointManagement
  62:../../LUFA-111009/LUFA/Drivers/USB/Core/AVR8/../AVR8/Endpoint_AVR8.h ****  *  \defgroup Group_EndpointManagement_AVR8 Endpoint Management (AVR8)
  63:../../LUFA-111009/LUFA/Drivers/USB/Core/AVR8/../AVR8/Endpoint_AVR8.h ****  *  \brief Endpoint management definitions for the Atmel AVR8 architecture.
  64:../../LUFA-111009/LUFA/Drivers/USB/Core/AVR8/../AVR8/Endpoint_AVR8.h ****  *
  65:../../LUFA-111009/LUFA/Drivers/USB/Core/AVR8/../AVR8/Endpoint_AVR8.h ****  *  Functions, macros and enums related to endpoint management when in USB Device mode. This
  66:../../LUFA-111009/LUFA/Drivers/USB/Core/AVR8/../AVR8/Endpoint_AVR8.h ****  *  module contains the endpoint management macros, as well as endpoint interrupt and data
  67:../../LUFA-111009/LUFA/Drivers/USB/Core/AVR8/../AVR8/Endpoint_AVR8.h ****  *  send/receive functions for various data types.
  68:../../LUFA-111009/LUFA/Drivers/USB/Core/AVR8/../AVR8/Endpoint_AVR8.h ****  *
  69:../../LUFA-111009/LUFA/Drivers/USB/Core/AVR8/../AVR8/Endpoint_AVR8.h ****  *  @{
  70:../../LUFA-111009/LUFA/Drivers/USB/Core/AVR8/../AVR8/Endpoint_AVR8.h ****  */
  71:../../LUFA-111009/LUFA/Drivers/USB/Core/AVR8/../AVR8/Endpoint_AVR8.h **** 
  72:../../LUFA-111009/LUFA/Drivers/USB/Core/AVR8/../AVR8/Endpoint_AVR8.h **** #ifndef __ENDPOINT_AVR8_H__
  73:../../LUFA-111009/LUFA/Drivers/USB/Core/AVR8/../AVR8/Endpoint_AVR8.h **** #define __ENDPOINT_AVR8_H__
  74:../../LUFA-111009/LUFA/Drivers/USB/Core/AVR8/../AVR8/Endpoint_AVR8.h **** 
  75:../../LUFA-111009/LUFA/Drivers/USB/Core/AVR8/../AVR8/Endpoint_AVR8.h **** 	/* Includes: */
  76:../../LUFA-111009/LUFA/Drivers/USB/Core/AVR8/../AVR8/Endpoint_AVR8.h **** 		#include "../../../../Common/Common.h"
  77:../../LUFA-111009/LUFA/Drivers/USB/Core/AVR8/../AVR8/Endpoint_AVR8.h **** 		#include "../USBTask.h"
  78:../../LUFA-111009/LUFA/Drivers/USB/Core/AVR8/../AVR8/Endpoint_AVR8.h **** 		#include "../USBInterrupt.h"
  79:../../LUFA-111009/LUFA/Drivers/USB/Core/AVR8/../AVR8/Endpoint_AVR8.h **** 
  80:../../LUFA-111009/LUFA/Drivers/USB/Core/AVR8/../AVR8/Endpoint_AVR8.h **** 	/* Enable C linkage for C++ Compilers: */
  81:../../LUFA-111009/LUFA/Drivers/USB/Core/AVR8/../AVR8/Endpoint_AVR8.h **** 		#if defined(__cplusplus)
  82:../../LUFA-111009/LUFA/Drivers/USB/Core/AVR8/../AVR8/Endpoint_AVR8.h **** 			extern "C" {
  83:../../LUFA-111009/LUFA/Drivers/USB/Core/AVR8/../AVR8/Endpoint_AVR8.h **** 		#endif
  84:../../LUFA-111009/LUFA/Drivers/USB/Core/AVR8/../AVR8/Endpoint_AVR8.h **** 
  85:../../LUFA-111009/LUFA/Drivers/USB/Core/AVR8/../AVR8/Endpoint_AVR8.h **** 	/* Preprocessor Checks: */
  86:../../LUFA-111009/LUFA/Drivers/USB/Core/AVR8/../AVR8/Endpoint_AVR8.h **** 		#if !defined(__INCLUDE_FROM_USB_DRIVER)
  87:../../LUFA-111009/LUFA/Drivers/USB/Core/AVR8/../AVR8/Endpoint_AVR8.h **** 			#error Do not include this file directly. Include LUFA/Drivers/USB/USB.h instead.
  88:../../LUFA-111009/LUFA/Drivers/USB/Core/AVR8/../AVR8/Endpoint_AVR8.h **** 		#endif
  89:../../LUFA-111009/LUFA/Drivers/USB/Core/AVR8/../AVR8/Endpoint_AVR8.h **** 
  90:../../LUFA-111009/LUFA/Drivers/USB/Core/AVR8/../AVR8/Endpoint_AVR8.h **** 	/* Private Interface - For use in library only: */
  91:../../LUFA-111009/LUFA/Drivers/USB/Core/AVR8/../AVR8/Endpoint_AVR8.h **** 	#if !defined(__DOXYGEN__)
  92:../../LUFA-111009/LUFA/Drivers/USB/Core/AVR8/../AVR8/Endpoint_AVR8.h **** 		/* Macros: */
  93:../../LUFA-111009/LUFA/Drivers/USB/Core/AVR8/../AVR8/Endpoint_AVR8.h **** 			#define _ENDPOINT_GET_MAXSIZE(EPIndex)         _ENDPOINT_GET_MAXSIZE2(ENDPOINT_DETAILS_EP ## EPI
  94:../../LUFA-111009/LUFA/Drivers/USB/Core/AVR8/../AVR8/Endpoint_AVR8.h **** 			#define _ENDPOINT_GET_MAXSIZE2(EPDetails)      _ENDPOINT_GET_MAXSIZE3(EPDetails)
  95:../../LUFA-111009/LUFA/Drivers/USB/Core/AVR8/../AVR8/Endpoint_AVR8.h **** 			#define _ENDPOINT_GET_MAXSIZE3(MaxSize, Banks) (MaxSize)
  96:../../LUFA-111009/LUFA/Drivers/USB/Core/AVR8/../AVR8/Endpoint_AVR8.h **** 
  97:../../LUFA-111009/LUFA/Drivers/USB/Core/AVR8/../AVR8/Endpoint_AVR8.h **** 			#define _ENDPOINT_GET_BANKS(EPIndex)           _ENDPOINT_GET_BANKS2(ENDPOINT_DETAILS_EP ## EPInd
  98:../../LUFA-111009/LUFA/Drivers/USB/Core/AVR8/../AVR8/Endpoint_AVR8.h **** 			#define _ENDPOINT_GET_BANKS2(EPDetails)        _ENDPOINT_GET_BANKS3(EPDetails)
  99:../../LUFA-111009/LUFA/Drivers/USB/Core/AVR8/../AVR8/Endpoint_AVR8.h **** 			#define _ENDPOINT_GET_BANKS3(MaxSize, Banks)   (Banks)
 100:../../LUFA-111009/LUFA/Drivers/USB/Core/AVR8/../AVR8/Endpoint_AVR8.h **** 
 101:../../LUFA-111009/LUFA/Drivers/USB/Core/AVR8/../AVR8/Endpoint_AVR8.h **** 			#if defined(USB_SERIES_4_AVR) || defined(USB_SERIES_6_AVR) || defined(USB_SERIES_7_AVR)
 102:../../LUFA-111009/LUFA/Drivers/USB/Core/AVR8/../AVR8/Endpoint_AVR8.h **** 				#define ENDPOINT_DETAILS_MAXEP             7
 103:../../LUFA-111009/LUFA/Drivers/USB/Core/AVR8/../AVR8/Endpoint_AVR8.h **** 
 104:../../LUFA-111009/LUFA/Drivers/USB/Core/AVR8/../AVR8/Endpoint_AVR8.h **** 				#define ENDPOINT_DETAILS_EP0               64,  1
 105:../../LUFA-111009/LUFA/Drivers/USB/Core/AVR8/../AVR8/Endpoint_AVR8.h **** 				#define ENDPOINT_DETAILS_EP1               256, 2
 106:../../LUFA-111009/LUFA/Drivers/USB/Core/AVR8/../AVR8/Endpoint_AVR8.h **** 				#define ENDPOINT_DETAILS_EP2               64,  2
 107:../../LUFA-111009/LUFA/Drivers/USB/Core/AVR8/../AVR8/Endpoint_AVR8.h **** 				#define ENDPOINT_DETAILS_EP3               64,  2
 108:../../LUFA-111009/LUFA/Drivers/USB/Core/AVR8/../AVR8/Endpoint_AVR8.h **** 				#define ENDPOINT_DETAILS_EP4               64,  2
 109:../../LUFA-111009/LUFA/Drivers/USB/Core/AVR8/../AVR8/Endpoint_AVR8.h **** 				#define ENDPOINT_DETAILS_EP5               64,  2
 110:../../LUFA-111009/LUFA/Drivers/USB/Core/AVR8/../AVR8/Endpoint_AVR8.h **** 				#define ENDPOINT_DETAILS_EP6               64,  2
 111:../../LUFA-111009/LUFA/Drivers/USB/Core/AVR8/../AVR8/Endpoint_AVR8.h **** 			#else
 112:../../LUFA-111009/LUFA/Drivers/USB/Core/AVR8/../AVR8/Endpoint_AVR8.h **** 				#define ENDPOINT_DETAILS_MAXEP             5
 113:../../LUFA-111009/LUFA/Drivers/USB/Core/AVR8/../AVR8/Endpoint_AVR8.h **** 
 114:../../LUFA-111009/LUFA/Drivers/USB/Core/AVR8/../AVR8/Endpoint_AVR8.h **** 				#define ENDPOINT_DETAILS_EP0               64,  1
 115:../../LUFA-111009/LUFA/Drivers/USB/Core/AVR8/../AVR8/Endpoint_AVR8.h **** 				#define ENDPOINT_DETAILS_EP1               64,  1
 116:../../LUFA-111009/LUFA/Drivers/USB/Core/AVR8/../AVR8/Endpoint_AVR8.h **** 				#define ENDPOINT_DETAILS_EP2               64,  1
 117:../../LUFA-111009/LUFA/Drivers/USB/Core/AVR8/../AVR8/Endpoint_AVR8.h **** 				#define ENDPOINT_DETAILS_EP3               64,  2
 118:../../LUFA-111009/LUFA/Drivers/USB/Core/AVR8/../AVR8/Endpoint_AVR8.h **** 				#define ENDPOINT_DETAILS_EP4               64,  2
 119:../../LUFA-111009/LUFA/Drivers/USB/Core/AVR8/../AVR8/Endpoint_AVR8.h **** 			#endif
 120:../../LUFA-111009/LUFA/Drivers/USB/Core/AVR8/../AVR8/Endpoint_AVR8.h **** 
 121:../../LUFA-111009/LUFA/Drivers/USB/Core/AVR8/../AVR8/Endpoint_AVR8.h **** 		/* Inline Functions: */
 122:../../LUFA-111009/LUFA/Drivers/USB/Core/AVR8/../AVR8/Endpoint_AVR8.h **** 			static inline uint8_t Endpoint_BytesToEPSizeMask(const uint16_t Bytes) ATTR_WARN_UNUSED_RESULT A
 123:../../LUFA-111009/LUFA/Drivers/USB/Core/AVR8/../AVR8/Endpoint_AVR8.h **** 			                                                                       ATTR_ALWAYS_INLINE;
 124:../../LUFA-111009/LUFA/Drivers/USB/Core/AVR8/../AVR8/Endpoint_AVR8.h **** 			static inline uint8_t Endpoint_BytesToEPSizeMask(const uint16_t Bytes)
 125:../../LUFA-111009/LUFA/Drivers/USB/Core/AVR8/../AVR8/Endpoint_AVR8.h **** 			{
 126:../../LUFA-111009/LUFA/Drivers/USB/Core/AVR8/../AVR8/Endpoint_AVR8.h **** 				uint8_t  MaskVal    = 0;
 127:../../LUFA-111009/LUFA/Drivers/USB/Core/AVR8/../AVR8/Endpoint_AVR8.h **** 				uint16_t CheckBytes = 8;
 128:../../LUFA-111009/LUFA/Drivers/USB/Core/AVR8/../AVR8/Endpoint_AVR8.h **** 
 129:../../LUFA-111009/LUFA/Drivers/USB/Core/AVR8/../AVR8/Endpoint_AVR8.h **** 				while (CheckBytes < Bytes)
 130:../../LUFA-111009/LUFA/Drivers/USB/Core/AVR8/../AVR8/Endpoint_AVR8.h **** 				{
 131:../../LUFA-111009/LUFA/Drivers/USB/Core/AVR8/../AVR8/Endpoint_AVR8.h **** 					MaskVal++;
 132:../../LUFA-111009/LUFA/Drivers/USB/Core/AVR8/../AVR8/Endpoint_AVR8.h **** 					CheckBytes <<= 1;
 133:../../LUFA-111009/LUFA/Drivers/USB/Core/AVR8/../AVR8/Endpoint_AVR8.h **** 				}
 134:../../LUFA-111009/LUFA/Drivers/USB/Core/AVR8/../AVR8/Endpoint_AVR8.h **** 
 135:../../LUFA-111009/LUFA/Drivers/USB/Core/AVR8/../AVR8/Endpoint_AVR8.h **** 				return (MaskVal << EPSIZE0);
 136:../../LUFA-111009/LUFA/Drivers/USB/Core/AVR8/../AVR8/Endpoint_AVR8.h **** 			}
 137:../../LUFA-111009/LUFA/Drivers/USB/Core/AVR8/../AVR8/Endpoint_AVR8.h **** 
 138:../../LUFA-111009/LUFA/Drivers/USB/Core/AVR8/../AVR8/Endpoint_AVR8.h **** 		/* Function Prototypes: */
 139:../../LUFA-111009/LUFA/Drivers/USB/Core/AVR8/../AVR8/Endpoint_AVR8.h **** 			void Endpoint_ClearEndpoints(void);
 140:../../LUFA-111009/LUFA/Drivers/USB/Core/AVR8/../AVR8/Endpoint_AVR8.h **** 			bool Endpoint_ConfigureEndpoint_Prv(const uint8_t Number,
 141:../../LUFA-111009/LUFA/Drivers/USB/Core/AVR8/../AVR8/Endpoint_AVR8.h **** 			                                    const uint8_t UECFG0XData,
 142:../../LUFA-111009/LUFA/Drivers/USB/Core/AVR8/../AVR8/Endpoint_AVR8.h **** 			                                    const uint8_t UECFG1XData);
 143:../../LUFA-111009/LUFA/Drivers/USB/Core/AVR8/../AVR8/Endpoint_AVR8.h **** 
 144:../../LUFA-111009/LUFA/Drivers/USB/Core/AVR8/../AVR8/Endpoint_AVR8.h **** 	#endif
 145:../../LUFA-111009/LUFA/Drivers/USB/Core/AVR8/../AVR8/Endpoint_AVR8.h **** 
 146:../../LUFA-111009/LUFA/Drivers/USB/Core/AVR8/../AVR8/Endpoint_AVR8.h **** 	/* Public Interface - May be used in end-application: */
 147:../../LUFA-111009/LUFA/Drivers/USB/Core/AVR8/../AVR8/Endpoint_AVR8.h **** 		/* Macros: */			
 148:../../LUFA-111009/LUFA/Drivers/USB/Core/AVR8/../AVR8/Endpoint_AVR8.h **** 			/** \name Endpoint Bank Mode Masks */
 149:../../LUFA-111009/LUFA/Drivers/USB/Core/AVR8/../AVR8/Endpoint_AVR8.h **** 			//@{
 150:../../LUFA-111009/LUFA/Drivers/USB/Core/AVR8/../AVR8/Endpoint_AVR8.h **** 			/** Mask for the bank mode selection for the \ref Endpoint_ConfigureEndpoint() macro. This indic
 151:../../LUFA-111009/LUFA/Drivers/USB/Core/AVR8/../AVR8/Endpoint_AVR8.h **** 			 *  that the endpoint should have one single bank, which requires less USB FIFO memory but resul
 152:../../LUFA-111009/LUFA/Drivers/USB/Core/AVR8/../AVR8/Endpoint_AVR8.h **** 			 *  in slower transfers as only one USB device (the AVR or the host) can access the endpoint's
 153:../../LUFA-111009/LUFA/Drivers/USB/Core/AVR8/../AVR8/Endpoint_AVR8.h **** 			 *  bank at the one time.
 154:../../LUFA-111009/LUFA/Drivers/USB/Core/AVR8/../AVR8/Endpoint_AVR8.h **** 			 */
 155:../../LUFA-111009/LUFA/Drivers/USB/Core/AVR8/../AVR8/Endpoint_AVR8.h **** 			#define ENDPOINT_BANK_SINGLE                    (0 << EPBK0)
 156:../../LUFA-111009/LUFA/Drivers/USB/Core/AVR8/../AVR8/Endpoint_AVR8.h **** 
 157:../../LUFA-111009/LUFA/Drivers/USB/Core/AVR8/../AVR8/Endpoint_AVR8.h **** 			/** Mask for the bank mode selection for the \ref Endpoint_ConfigureEndpoint() macro. This indic
 158:../../LUFA-111009/LUFA/Drivers/USB/Core/AVR8/../AVR8/Endpoint_AVR8.h **** 			 *  that the endpoint should have two banks, which requires more USB FIFO memory but results
 159:../../LUFA-111009/LUFA/Drivers/USB/Core/AVR8/../AVR8/Endpoint_AVR8.h **** 			 *  in faster transfers as one USB device (the AVR or the host) can access one bank while the ot
 160:../../LUFA-111009/LUFA/Drivers/USB/Core/AVR8/../AVR8/Endpoint_AVR8.h **** 			 *  accesses the second bank.
 161:../../LUFA-111009/LUFA/Drivers/USB/Core/AVR8/../AVR8/Endpoint_AVR8.h **** 			 */
 162:../../LUFA-111009/LUFA/Drivers/USB/Core/AVR8/../AVR8/Endpoint_AVR8.h **** 			#define ENDPOINT_BANK_DOUBLE                    (1 << EPBK0)
 163:../../LUFA-111009/LUFA/Drivers/USB/Core/AVR8/../AVR8/Endpoint_AVR8.h **** 			//@}
 164:../../LUFA-111009/LUFA/Drivers/USB/Core/AVR8/../AVR8/Endpoint_AVR8.h **** 
 165:../../LUFA-111009/LUFA/Drivers/USB/Core/AVR8/../AVR8/Endpoint_AVR8.h **** 			#if (!defined(FIXED_CONTROL_ENDPOINT_SIZE) || defined(__DOXYGEN__))
 166:../../LUFA-111009/LUFA/Drivers/USB/Core/AVR8/../AVR8/Endpoint_AVR8.h **** 				/** Default size of the default control endpoint's bank, until altered by the control endpoint 
 167:../../LUFA-111009/LUFA/Drivers/USB/Core/AVR8/../AVR8/Endpoint_AVR8.h **** 				 *  value in the device descriptor. Not available if the \c FIXED_CONTROL_ENDPOINT_SIZE token i
 168:../../LUFA-111009/LUFA/Drivers/USB/Core/AVR8/../AVR8/Endpoint_AVR8.h **** 				 */
 169:../../LUFA-111009/LUFA/Drivers/USB/Core/AVR8/../AVR8/Endpoint_AVR8.h **** 				#define ENDPOINT_CONTROLEP_DEFAULT_SIZE     8
 170:../../LUFA-111009/LUFA/Drivers/USB/Core/AVR8/../AVR8/Endpoint_AVR8.h **** 			#endif
 171:../../LUFA-111009/LUFA/Drivers/USB/Core/AVR8/../AVR8/Endpoint_AVR8.h **** 
 172:../../LUFA-111009/LUFA/Drivers/USB/Core/AVR8/../AVR8/Endpoint_AVR8.h **** 			/** Retrieves the maximum bank size in bytes of a given endpoint.
 173:../../LUFA-111009/LUFA/Drivers/USB/Core/AVR8/../AVR8/Endpoint_AVR8.h **** 			 *
 174:../../LUFA-111009/LUFA/Drivers/USB/Core/AVR8/../AVR8/Endpoint_AVR8.h **** 			 *  \note This macro will only work correctly on endpoint indexes that are compile-time constant
 175:../../LUFA-111009/LUFA/Drivers/USB/Core/AVR8/../AVR8/Endpoint_AVR8.h **** 			 *        defined by the preprocessor.
 176:../../LUFA-111009/LUFA/Drivers/USB/Core/AVR8/../AVR8/Endpoint_AVR8.h **** 			 *
 177:../../LUFA-111009/LUFA/Drivers/USB/Core/AVR8/../AVR8/Endpoint_AVR8.h **** 			 *  \param[in] EPIndex  Endpoint number, a value between 0 and (\ref ENDPOINT_TOTAL_ENDPOINTS - 
 178:../../LUFA-111009/LUFA/Drivers/USB/Core/AVR8/../AVR8/Endpoint_AVR8.h **** 			 */
 179:../../LUFA-111009/LUFA/Drivers/USB/Core/AVR8/../AVR8/Endpoint_AVR8.h **** 			#define ENDPOINT_MAX_SIZE(EPIndex)              _ENDPOINT_GET_MAXSIZE(EPIndex)
 180:../../LUFA-111009/LUFA/Drivers/USB/Core/AVR8/../AVR8/Endpoint_AVR8.h **** 
 181:../../LUFA-111009/LUFA/Drivers/USB/Core/AVR8/../AVR8/Endpoint_AVR8.h **** 			/** Retrieves the total number of banks supported by the given endpoint.
 182:../../LUFA-111009/LUFA/Drivers/USB/Core/AVR8/../AVR8/Endpoint_AVR8.h **** 			 *
 183:../../LUFA-111009/LUFA/Drivers/USB/Core/AVR8/../AVR8/Endpoint_AVR8.h **** 			 *  \note This macro will only work correctly on endpoint indexes that are compile-time constant
 184:../../LUFA-111009/LUFA/Drivers/USB/Core/AVR8/../AVR8/Endpoint_AVR8.h **** 			 *        defined by the preprocessor.
 185:../../LUFA-111009/LUFA/Drivers/USB/Core/AVR8/../AVR8/Endpoint_AVR8.h **** 			 *
 186:../../LUFA-111009/LUFA/Drivers/USB/Core/AVR8/../AVR8/Endpoint_AVR8.h **** 			 *  \param[in] EPIndex  Endpoint number, a value between 0 and (\ref ENDPOINT_TOTAL_ENDPOINTS - 
 187:../../LUFA-111009/LUFA/Drivers/USB/Core/AVR8/../AVR8/Endpoint_AVR8.h **** 			 */
 188:../../LUFA-111009/LUFA/Drivers/USB/Core/AVR8/../AVR8/Endpoint_AVR8.h **** 			#define ENDPOINT_BANKS_SUPPORTED(EPIndex)       _ENDPOINT_GET_BANKS(EPIndex)
 189:../../LUFA-111009/LUFA/Drivers/USB/Core/AVR8/../AVR8/Endpoint_AVR8.h **** 
 190:../../LUFA-111009/LUFA/Drivers/USB/Core/AVR8/../AVR8/Endpoint_AVR8.h **** 			#if !defined(CONTROL_ONLY_DEVICE) || defined(__DOXYGEN__)
 191:../../LUFA-111009/LUFA/Drivers/USB/Core/AVR8/../AVR8/Endpoint_AVR8.h **** 				/** Total number of endpoints (including the default control endpoint at address 0) which may
 192:../../LUFA-111009/LUFA/Drivers/USB/Core/AVR8/../AVR8/Endpoint_AVR8.h **** 				 *  be used in the device. Different USB AVR models support different amounts of endpoints,
 193:../../LUFA-111009/LUFA/Drivers/USB/Core/AVR8/../AVR8/Endpoint_AVR8.h **** 				 *  this value reflects the maximum number of endpoints for the currently selected AVR model.
 194:../../LUFA-111009/LUFA/Drivers/USB/Core/AVR8/../AVR8/Endpoint_AVR8.h **** 				 */
 195:../../LUFA-111009/LUFA/Drivers/USB/Core/AVR8/../AVR8/Endpoint_AVR8.h **** 				#define ENDPOINT_TOTAL_ENDPOINTS            ENDPOINT_DETAILS_MAXEP
 196:../../LUFA-111009/LUFA/Drivers/USB/Core/AVR8/../AVR8/Endpoint_AVR8.h **** 			#else
 197:../../LUFA-111009/LUFA/Drivers/USB/Core/AVR8/../AVR8/Endpoint_AVR8.h **** 				#define ENDPOINT_TOTAL_ENDPOINTS            1
 198:../../LUFA-111009/LUFA/Drivers/USB/Core/AVR8/../AVR8/Endpoint_AVR8.h **** 			#endif
 199:../../LUFA-111009/LUFA/Drivers/USB/Core/AVR8/../AVR8/Endpoint_AVR8.h **** 
 200:../../LUFA-111009/LUFA/Drivers/USB/Core/AVR8/../AVR8/Endpoint_AVR8.h **** 		/* Enums: */
 201:../../LUFA-111009/LUFA/Drivers/USB/Core/AVR8/../AVR8/Endpoint_AVR8.h **** 			/** Enum for the possible error return codes of the \ref Endpoint_WaitUntilReady() function.
 202:../../LUFA-111009/LUFA/Drivers/USB/Core/AVR8/../AVR8/Endpoint_AVR8.h **** 			 *
 203:../../LUFA-111009/LUFA/Drivers/USB/Core/AVR8/../AVR8/Endpoint_AVR8.h **** 			 *  \ingroup Group_EndpointRW_AVR8
 204:../../LUFA-111009/LUFA/Drivers/USB/Core/AVR8/../AVR8/Endpoint_AVR8.h **** 			 */
 205:../../LUFA-111009/LUFA/Drivers/USB/Core/AVR8/../AVR8/Endpoint_AVR8.h **** 			enum Endpoint_WaitUntilReady_ErrorCodes_t
 206:../../LUFA-111009/LUFA/Drivers/USB/Core/AVR8/../AVR8/Endpoint_AVR8.h **** 			{
 207:../../LUFA-111009/LUFA/Drivers/USB/Core/AVR8/../AVR8/Endpoint_AVR8.h **** 				ENDPOINT_READYWAIT_NoError                 = 0, /**< Endpoint is ready for next packet, no erro
 208:../../LUFA-111009/LUFA/Drivers/USB/Core/AVR8/../AVR8/Endpoint_AVR8.h **** 				ENDPOINT_READYWAIT_EndpointStalled         = 1, /**< The endpoint was stalled during the stream
 209:../../LUFA-111009/LUFA/Drivers/USB/Core/AVR8/../AVR8/Endpoint_AVR8.h **** 				                                                 *   transfer by the host or device.
 210:../../LUFA-111009/LUFA/Drivers/USB/Core/AVR8/../AVR8/Endpoint_AVR8.h **** 				                                                 */
 211:../../LUFA-111009/LUFA/Drivers/USB/Core/AVR8/../AVR8/Endpoint_AVR8.h **** 				ENDPOINT_READYWAIT_DeviceDisconnected      = 2,	/**< Device was disconnected from the host whil
 212:../../LUFA-111009/LUFA/Drivers/USB/Core/AVR8/../AVR8/Endpoint_AVR8.h **** 				                                                 *   waiting for the endpoint to become ready.
 213:../../LUFA-111009/LUFA/Drivers/USB/Core/AVR8/../AVR8/Endpoint_AVR8.h **** 				                                                 */
 214:../../LUFA-111009/LUFA/Drivers/USB/Core/AVR8/../AVR8/Endpoint_AVR8.h **** 				ENDPOINT_READYWAIT_BusSuspended            = 3, /**< The USB bus has been suspended by the host
 215:../../LUFA-111009/LUFA/Drivers/USB/Core/AVR8/../AVR8/Endpoint_AVR8.h **** 				                                                 *   no USB endpoint traffic can occur until th
 216:../../LUFA-111009/LUFA/Drivers/USB/Core/AVR8/../AVR8/Endpoint_AVR8.h **** 				                                                 *   has resumed.
 217:../../LUFA-111009/LUFA/Drivers/USB/Core/AVR8/../AVR8/Endpoint_AVR8.h **** 				                                                 */
 218:../../LUFA-111009/LUFA/Drivers/USB/Core/AVR8/../AVR8/Endpoint_AVR8.h **** 				ENDPOINT_READYWAIT_Timeout                 = 4, /**< The host failed to accept or send the next
 219:../../LUFA-111009/LUFA/Drivers/USB/Core/AVR8/../AVR8/Endpoint_AVR8.h **** 				                                                 *   within the software timeout period set by 
 220:../../LUFA-111009/LUFA/Drivers/USB/Core/AVR8/../AVR8/Endpoint_AVR8.h **** 				                                                 *   \ref USB_STREAM_TIMEOUT_MS macro.
 221:../../LUFA-111009/LUFA/Drivers/USB/Core/AVR8/../AVR8/Endpoint_AVR8.h **** 				                                                 */
 222:../../LUFA-111009/LUFA/Drivers/USB/Core/AVR8/../AVR8/Endpoint_AVR8.h **** 			};
 223:../../LUFA-111009/LUFA/Drivers/USB/Core/AVR8/../AVR8/Endpoint_AVR8.h **** 
 224:../../LUFA-111009/LUFA/Drivers/USB/Core/AVR8/../AVR8/Endpoint_AVR8.h **** 		/* Inline Functions: */
 225:../../LUFA-111009/LUFA/Drivers/USB/Core/AVR8/../AVR8/Endpoint_AVR8.h **** 			/** Configures the specified endpoint number with the given endpoint type, direction, bank size
 226:../../LUFA-111009/LUFA/Drivers/USB/Core/AVR8/../AVR8/Endpoint_AVR8.h **** 			 *  and banking mode. Once configured, the endpoint may be read from or written to, depending
 227:../../LUFA-111009/LUFA/Drivers/USB/Core/AVR8/../AVR8/Endpoint_AVR8.h **** 			 *  on its direction.
 228:../../LUFA-111009/LUFA/Drivers/USB/Core/AVR8/../AVR8/Endpoint_AVR8.h **** 			 *
 229:../../LUFA-111009/LUFA/Drivers/USB/Core/AVR8/../AVR8/Endpoint_AVR8.h **** 			 *  \param[in] Number     Endpoint number to configure. This must be more than 0 and less than
 230:../../LUFA-111009/LUFA/Drivers/USB/Core/AVR8/../AVR8/Endpoint_AVR8.h **** 			 *                        \ref ENDPOINT_TOTAL_ENDPOINTS.
 231:../../LUFA-111009/LUFA/Drivers/USB/Core/AVR8/../AVR8/Endpoint_AVR8.h **** 			 *
 232:../../LUFA-111009/LUFA/Drivers/USB/Core/AVR8/../AVR8/Endpoint_AVR8.h **** 			 *  \param[in] Type       Type of endpoint to configure, a \c EP_TYPE_* mask. Not all endpoint t
 233:../../LUFA-111009/LUFA/Drivers/USB/Core/AVR8/../AVR8/Endpoint_AVR8.h **** 			 *                        are available on Low Speed USB devices - refer to the USB 2.0 specific
 234:../../LUFA-111009/LUFA/Drivers/USB/Core/AVR8/../AVR8/Endpoint_AVR8.h **** 			 *
 235:../../LUFA-111009/LUFA/Drivers/USB/Core/AVR8/../AVR8/Endpoint_AVR8.h **** 			 *  \param[in] Direction  Endpoint data direction, either \ref ENDPOINT_DIR_OUT or \ref ENDPOINT
 236:../../LUFA-111009/LUFA/Drivers/USB/Core/AVR8/../AVR8/Endpoint_AVR8.h **** 			 *                        All endpoints (except Control type) are unidirectional - data may only
 237:../../LUFA-111009/LUFA/Drivers/USB/Core/AVR8/../AVR8/Endpoint_AVR8.h **** 			 *                        from or written to the endpoint bank based on its direction, not both.
 238:../../LUFA-111009/LUFA/Drivers/USB/Core/AVR8/../AVR8/Endpoint_AVR8.h **** 			 *
 239:../../LUFA-111009/LUFA/Drivers/USB/Core/AVR8/../AVR8/Endpoint_AVR8.h **** 			 *  \param[in] Size       Size of the endpoint's bank, where packets are stored before they are 
 240:../../LUFA-111009/LUFA/Drivers/USB/Core/AVR8/../AVR8/Endpoint_AVR8.h **** 			 *                        to the USB host, or after they have been received from the USB host (d
 241:../../LUFA-111009/LUFA/Drivers/USB/Core/AVR8/../AVR8/Endpoint_AVR8.h **** 			 *                        the endpoint's data direction). The bank size must indicate the maximu
 242:../../LUFA-111009/LUFA/Drivers/USB/Core/AVR8/../AVR8/Endpoint_AVR8.h **** 			 *                        that the endpoint can handle.
 243:../../LUFA-111009/LUFA/Drivers/USB/Core/AVR8/../AVR8/Endpoint_AVR8.h **** 			 *
 244:../../LUFA-111009/LUFA/Drivers/USB/Core/AVR8/../AVR8/Endpoint_AVR8.h **** 			 *  \param[in] Banks      Number of banks to use for the endpoint being configured, an \c ENDPOI
 245:../../LUFA-111009/LUFA/Drivers/USB/Core/AVR8/../AVR8/Endpoint_AVR8.h **** 			 *                        More banks uses more USB DPRAM, but offers better performance. Isochro
 246:../../LUFA-111009/LUFA/Drivers/USB/Core/AVR8/../AVR8/Endpoint_AVR8.h **** 			 *                        endpoints <b>must</b> have at least two banks.
 247:../../LUFA-111009/LUFA/Drivers/USB/Core/AVR8/../AVR8/Endpoint_AVR8.h **** 			 *
 248:../../LUFA-111009/LUFA/Drivers/USB/Core/AVR8/../AVR8/Endpoint_AVR8.h **** 			 *  \note When the \c ORDERED_EP_CONFIG compile time option is used, Endpoints <b>must</b> be co
 249:../../LUFA-111009/LUFA/Drivers/USB/Core/AVR8/../AVR8/Endpoint_AVR8.h **** 			 *        ascending order, or bank corruption will occur.
 250:../../LUFA-111009/LUFA/Drivers/USB/Core/AVR8/../AVR8/Endpoint_AVR8.h **** 			 *        \n\n
 251:../../LUFA-111009/LUFA/Drivers/USB/Core/AVR8/../AVR8/Endpoint_AVR8.h **** 			 *
 252:../../LUFA-111009/LUFA/Drivers/USB/Core/AVR8/../AVR8/Endpoint_AVR8.h **** 			 *  \note Different endpoints may have different maximum packet sizes based on the endpoint's in
 253:../../LUFA-111009/LUFA/Drivers/USB/Core/AVR8/../AVR8/Endpoint_AVR8.h **** 			 *        the chosen microcontroller model's datasheet to determine the maximum bank size for ea
 254:../../LUFA-111009/LUFA/Drivers/USB/Core/AVR8/../AVR8/Endpoint_AVR8.h **** 			 *        \n\n
 255:../../LUFA-111009/LUFA/Drivers/USB/Core/AVR8/../AVR8/Endpoint_AVR8.h **** 			 *
 256:../../LUFA-111009/LUFA/Drivers/USB/Core/AVR8/../AVR8/Endpoint_AVR8.h **** 			 *  \note The default control endpoint should not be manually configured by the user application
 257:../../LUFA-111009/LUFA/Drivers/USB/Core/AVR8/../AVR8/Endpoint_AVR8.h **** 			 *        it is automatically configured by the library internally.
 258:../../LUFA-111009/LUFA/Drivers/USB/Core/AVR8/../AVR8/Endpoint_AVR8.h **** 			 *        \n\n
 259:../../LUFA-111009/LUFA/Drivers/USB/Core/AVR8/../AVR8/Endpoint_AVR8.h **** 			 *
 260:../../LUFA-111009/LUFA/Drivers/USB/Core/AVR8/../AVR8/Endpoint_AVR8.h **** 			 *  \note This routine will automatically select the specified endpoint upon success. Upon failu
 261:../../LUFA-111009/LUFA/Drivers/USB/Core/AVR8/../AVR8/Endpoint_AVR8.h **** 			 *        which failed to reconfigure correctly will be selected.
 262:../../LUFA-111009/LUFA/Drivers/USB/Core/AVR8/../AVR8/Endpoint_AVR8.h **** 			 *
 263:../../LUFA-111009/LUFA/Drivers/USB/Core/AVR8/../AVR8/Endpoint_AVR8.h **** 			 *  \return Boolean \c true if the configuration succeeded, \c false otherwise.
 264:../../LUFA-111009/LUFA/Drivers/USB/Core/AVR8/../AVR8/Endpoint_AVR8.h **** 			 */
 265:../../LUFA-111009/LUFA/Drivers/USB/Core/AVR8/../AVR8/Endpoint_AVR8.h **** 			static inline bool Endpoint_ConfigureEndpoint(const uint8_t Number,
 266:../../LUFA-111009/LUFA/Drivers/USB/Core/AVR8/../AVR8/Endpoint_AVR8.h **** 			                                              const uint8_t Type,
 267:../../LUFA-111009/LUFA/Drivers/USB/Core/AVR8/../AVR8/Endpoint_AVR8.h **** 			                                              const uint8_t Direction,
 268:../../LUFA-111009/LUFA/Drivers/USB/Core/AVR8/../AVR8/Endpoint_AVR8.h **** 			                                              const uint16_t Size,
 269:../../LUFA-111009/LUFA/Drivers/USB/Core/AVR8/../AVR8/Endpoint_AVR8.h **** 			                                              const uint8_t Banks) ATTR_ALWAYS_INLINE;
 270:../../LUFA-111009/LUFA/Drivers/USB/Core/AVR8/../AVR8/Endpoint_AVR8.h **** 			static inline bool Endpoint_ConfigureEndpoint(const uint8_t Number,
 271:../../LUFA-111009/LUFA/Drivers/USB/Core/AVR8/../AVR8/Endpoint_AVR8.h **** 			                                              const uint8_t Type,
 272:../../LUFA-111009/LUFA/Drivers/USB/Core/AVR8/../AVR8/Endpoint_AVR8.h **** 			                                              const uint8_t Direction,
 273:../../LUFA-111009/LUFA/Drivers/USB/Core/AVR8/../AVR8/Endpoint_AVR8.h **** 			                                              const uint16_t Size,
 274:../../LUFA-111009/LUFA/Drivers/USB/Core/AVR8/../AVR8/Endpoint_AVR8.h **** 			                                              const uint8_t Banks)
 275:../../LUFA-111009/LUFA/Drivers/USB/Core/AVR8/../AVR8/Endpoint_AVR8.h **** 			{
 276:../../LUFA-111009/LUFA/Drivers/USB/Core/AVR8/../AVR8/Endpoint_AVR8.h **** 				return Endpoint_ConfigureEndpoint_Prv(Number, ((Type << EPTYPE0) | (Direction ? (1 << EPDIR) : 
 277:../../LUFA-111009/LUFA/Drivers/USB/Core/AVR8/../AVR8/Endpoint_AVR8.h **** 				                                      ((1 << ALLOC) | Banks | Endpoint_BytesToEPSizeMask(Size))
 278:../../LUFA-111009/LUFA/Drivers/USB/Core/AVR8/../AVR8/Endpoint_AVR8.h **** 			}
 279:../../LUFA-111009/LUFA/Drivers/USB/Core/AVR8/../AVR8/Endpoint_AVR8.h **** 
 280:../../LUFA-111009/LUFA/Drivers/USB/Core/AVR8/../AVR8/Endpoint_AVR8.h **** 			/** Indicates the number of bytes currently stored in the current endpoint's selected bank.
 281:../../LUFA-111009/LUFA/Drivers/USB/Core/AVR8/../AVR8/Endpoint_AVR8.h **** 			 *
 282:../../LUFA-111009/LUFA/Drivers/USB/Core/AVR8/../AVR8/Endpoint_AVR8.h **** 			 *  \note The return width of this function may differ, depending on the maximum endpoint bank s
 283:../../LUFA-111009/LUFA/Drivers/USB/Core/AVR8/../AVR8/Endpoint_AVR8.h **** 			 *        of the selected AVR model.
 284:../../LUFA-111009/LUFA/Drivers/USB/Core/AVR8/../AVR8/Endpoint_AVR8.h **** 			 *
 285:../../LUFA-111009/LUFA/Drivers/USB/Core/AVR8/../AVR8/Endpoint_AVR8.h **** 			 *  \ingroup Group_EndpointRW_AVR8
 286:../../LUFA-111009/LUFA/Drivers/USB/Core/AVR8/../AVR8/Endpoint_AVR8.h **** 			 *
 287:../../LUFA-111009/LUFA/Drivers/USB/Core/AVR8/../AVR8/Endpoint_AVR8.h **** 			 *  \return Total number of bytes in the currently selected Endpoint's FIFO buffer.
 288:../../LUFA-111009/LUFA/Drivers/USB/Core/AVR8/../AVR8/Endpoint_AVR8.h **** 			 */
 289:../../LUFA-111009/LUFA/Drivers/USB/Core/AVR8/../AVR8/Endpoint_AVR8.h **** 			static inline uint16_t Endpoint_BytesInEndpoint(void) ATTR_WARN_UNUSED_RESULT ATTR_ALWAYS_INLINE
 290:../../LUFA-111009/LUFA/Drivers/USB/Core/AVR8/../AVR8/Endpoint_AVR8.h **** 			static inline uint16_t Endpoint_BytesInEndpoint(void)
 291:../../LUFA-111009/LUFA/Drivers/USB/Core/AVR8/../AVR8/Endpoint_AVR8.h **** 			{
 292:../../LUFA-111009/LUFA/Drivers/USB/Core/AVR8/../AVR8/Endpoint_AVR8.h **** 				#if defined(USB_SERIES_6_AVR) || defined(USB_SERIES_7_AVR)
 293:../../LUFA-111009/LUFA/Drivers/USB/Core/AVR8/../AVR8/Endpoint_AVR8.h **** 					return UEBCX;
 294:../../LUFA-111009/LUFA/Drivers/USB/Core/AVR8/../AVR8/Endpoint_AVR8.h **** 				#elif defined(USB_SERIES_4_AVR)
 295:../../LUFA-111009/LUFA/Drivers/USB/Core/AVR8/../AVR8/Endpoint_AVR8.h **** 					return (((uint16_t)UEBCHX << 8) | UEBCLX);
 296:../../LUFA-111009/LUFA/Drivers/USB/Core/AVR8/../AVR8/Endpoint_AVR8.h **** 				#elif defined(USB_SERIES_2_AVR)
 297:../../LUFA-111009/LUFA/Drivers/USB/Core/AVR8/../AVR8/Endpoint_AVR8.h **** 					return UEBCLX;
 298:../../LUFA-111009/LUFA/Drivers/USB/Core/AVR8/../AVR8/Endpoint_AVR8.h **** 				#endif
 299:../../LUFA-111009/LUFA/Drivers/USB/Core/AVR8/../AVR8/Endpoint_AVR8.h **** 			}
 300:../../LUFA-111009/LUFA/Drivers/USB/Core/AVR8/../AVR8/Endpoint_AVR8.h **** 
 301:../../LUFA-111009/LUFA/Drivers/USB/Core/AVR8/../AVR8/Endpoint_AVR8.h **** 			/** Get the endpoint address of the currently selected endpoint. This is typically used to save
 302:../../LUFA-111009/LUFA/Drivers/USB/Core/AVR8/../AVR8/Endpoint_AVR8.h **** 			 *  the currently selected endpoint number so that it can be restored after another endpoint has
 303:../../LUFA-111009/LUFA/Drivers/USB/Core/AVR8/../AVR8/Endpoint_AVR8.h **** 			 *  been manipulated.
 304:../../LUFA-111009/LUFA/Drivers/USB/Core/AVR8/../AVR8/Endpoint_AVR8.h **** 			 *
 305:../../LUFA-111009/LUFA/Drivers/USB/Core/AVR8/../AVR8/Endpoint_AVR8.h **** 			 *  \return Index of the currently selected endpoint.
 306:../../LUFA-111009/LUFA/Drivers/USB/Core/AVR8/../AVR8/Endpoint_AVR8.h **** 			 */
 307:../../LUFA-111009/LUFA/Drivers/USB/Core/AVR8/../AVR8/Endpoint_AVR8.h **** 			static inline uint8_t Endpoint_GetCurrentEndpoint(void) ATTR_WARN_UNUSED_RESULT ATTR_ALWAYS_INLI
 308:../../LUFA-111009/LUFA/Drivers/USB/Core/AVR8/../AVR8/Endpoint_AVR8.h **** 			static inline uint8_t Endpoint_GetCurrentEndpoint(void)
 309:../../LUFA-111009/LUFA/Drivers/USB/Core/AVR8/../AVR8/Endpoint_AVR8.h **** 			{
 310:../../LUFA-111009/LUFA/Drivers/USB/Core/AVR8/../AVR8/Endpoint_AVR8.h **** 				#if !defined(CONTROL_ONLY_DEVICE)
 311:../../LUFA-111009/LUFA/Drivers/USB/Core/AVR8/../AVR8/Endpoint_AVR8.h **** 					return (UENUM & ENDPOINT_EPNUM_MASK);
 312:../../LUFA-111009/LUFA/Drivers/USB/Core/AVR8/../AVR8/Endpoint_AVR8.h **** 				#else
 313:../../LUFA-111009/LUFA/Drivers/USB/Core/AVR8/../AVR8/Endpoint_AVR8.h **** 					return ENDPOINT_CONTROLEP;
 314:../../LUFA-111009/LUFA/Drivers/USB/Core/AVR8/../AVR8/Endpoint_AVR8.h **** 				#endif
 315:../../LUFA-111009/LUFA/Drivers/USB/Core/AVR8/../AVR8/Endpoint_AVR8.h **** 			}
 316:../../LUFA-111009/LUFA/Drivers/USB/Core/AVR8/../AVR8/Endpoint_AVR8.h **** 
 317:../../LUFA-111009/LUFA/Drivers/USB/Core/AVR8/../AVR8/Endpoint_AVR8.h **** 			/** Selects the given endpoint number. If the address from the device descriptors is used, the
 318:../../LUFA-111009/LUFA/Drivers/USB/Core/AVR8/../AVR8/Endpoint_AVR8.h **** 			 *  value should be masked with the \ref ENDPOINT_EPNUM_MASK constant to extract only the endpoi
 319:../../LUFA-111009/LUFA/Drivers/USB/Core/AVR8/../AVR8/Endpoint_AVR8.h **** 			 *  number (and discarding the endpoint direction bit).
 320:../../LUFA-111009/LUFA/Drivers/USB/Core/AVR8/../AVR8/Endpoint_AVR8.h **** 			 *
 321:../../LUFA-111009/LUFA/Drivers/USB/Core/AVR8/../AVR8/Endpoint_AVR8.h **** 			 *  Any endpoint operations which do not require the endpoint number to be indicated will operat
 322:../../LUFA-111009/LUFA/Drivers/USB/Core/AVR8/../AVR8/Endpoint_AVR8.h **** 			 *  the currently selected endpoint.
 323:../../LUFA-111009/LUFA/Drivers/USB/Core/AVR8/../AVR8/Endpoint_AVR8.h **** 			 *
 324:../../LUFA-111009/LUFA/Drivers/USB/Core/AVR8/../AVR8/Endpoint_AVR8.h **** 			 *  \param[in] EndpointNumber Endpoint number to select.
 325:../../LUFA-111009/LUFA/Drivers/USB/Core/AVR8/../AVR8/Endpoint_AVR8.h **** 			 */
 326:../../LUFA-111009/LUFA/Drivers/USB/Core/AVR8/../AVR8/Endpoint_AVR8.h **** 			static inline void Endpoint_SelectEndpoint(const uint8_t EndpointNumber) ATTR_ALWAYS_INLINE;
 327:../../LUFA-111009/LUFA/Drivers/USB/Core/AVR8/../AVR8/Endpoint_AVR8.h **** 			static inline void Endpoint_SelectEndpoint(const uint8_t EndpointNumber)
 328:../../LUFA-111009/LUFA/Drivers/USB/Core/AVR8/../AVR8/Endpoint_AVR8.h **** 			{
 329:../../LUFA-111009/LUFA/Drivers/USB/Core/AVR8/../AVR8/Endpoint_AVR8.h **** 				#if !defined(CONTROL_ONLY_DEVICE)
 330:../../LUFA-111009/LUFA/Drivers/USB/Core/AVR8/../AVR8/Endpoint_AVR8.h **** 					UENUM = EndpointNumber;
  25               		.loc 2 330 0
  26 0000 84E0      		ldi r24,lo8(4)
  27 0002 8093 E900 		sts 233,r24
  28               	.L2:
  29               	.LBE82:
  30               	.LBE81:
  31               	.LBB83:
  32               	.LBB84:
 331:../../LUFA-111009/LUFA/Drivers/USB/Core/AVR8/../AVR8/Endpoint_AVR8.h **** 				#endif
 332:../../LUFA-111009/LUFA/Drivers/USB/Core/AVR8/../AVR8/Endpoint_AVR8.h **** 			}
 333:../../LUFA-111009/LUFA/Drivers/USB/Core/AVR8/../AVR8/Endpoint_AVR8.h **** 
 334:../../LUFA-111009/LUFA/Drivers/USB/Core/AVR8/../AVR8/Endpoint_AVR8.h **** 			/** Resets the endpoint bank FIFO. This clears all the endpoint banks and resets the USB control
 335:../../LUFA-111009/LUFA/Drivers/USB/Core/AVR8/../AVR8/Endpoint_AVR8.h **** 			 *  data In and Out pointers to the bank's contents.
 336:../../LUFA-111009/LUFA/Drivers/USB/Core/AVR8/../AVR8/Endpoint_AVR8.h **** 			 *
 337:../../LUFA-111009/LUFA/Drivers/USB/Core/AVR8/../AVR8/Endpoint_AVR8.h **** 			 *  \param[in] EndpointNumber Endpoint number whose FIFO buffers are to be reset.
 338:../../LUFA-111009/LUFA/Drivers/USB/Core/AVR8/../AVR8/Endpoint_AVR8.h **** 			 */
 339:../../LUFA-111009/LUFA/Drivers/USB/Core/AVR8/../AVR8/Endpoint_AVR8.h **** 			static inline void Endpoint_ResetEndpoint(const uint8_t EndpointNumber) ATTR_ALWAYS_INLINE;
 340:../../LUFA-111009/LUFA/Drivers/USB/Core/AVR8/../AVR8/Endpoint_AVR8.h **** 			static inline void Endpoint_ResetEndpoint(const uint8_t EndpointNumber)
 341:../../LUFA-111009/LUFA/Drivers/USB/Core/AVR8/../AVR8/Endpoint_AVR8.h **** 			{
 342:../../LUFA-111009/LUFA/Drivers/USB/Core/AVR8/../AVR8/Endpoint_AVR8.h **** 				UERST = (1 << EndpointNumber);
 343:../../LUFA-111009/LUFA/Drivers/USB/Core/AVR8/../AVR8/Endpoint_AVR8.h **** 				UERST = 0;
 344:../../LUFA-111009/LUFA/Drivers/USB/Core/AVR8/../AVR8/Endpoint_AVR8.h **** 			}
 345:../../LUFA-111009/LUFA/Drivers/USB/Core/AVR8/../AVR8/Endpoint_AVR8.h **** 
 346:../../LUFA-111009/LUFA/Drivers/USB/Core/AVR8/../AVR8/Endpoint_AVR8.h **** 			/** Enables the currently selected endpoint so that data can be sent and received through it to
 347:../../LUFA-111009/LUFA/Drivers/USB/Core/AVR8/../AVR8/Endpoint_AVR8.h **** 			 *  and from a host.
 348:../../LUFA-111009/LUFA/Drivers/USB/Core/AVR8/../AVR8/Endpoint_AVR8.h **** 			 *
 349:../../LUFA-111009/LUFA/Drivers/USB/Core/AVR8/../AVR8/Endpoint_AVR8.h **** 			 *  \note Endpoints must first be configured properly via \ref Endpoint_ConfigureEndpoint().
 350:../../LUFA-111009/LUFA/Drivers/USB/Core/AVR8/../AVR8/Endpoint_AVR8.h **** 			 */
 351:../../LUFA-111009/LUFA/Drivers/USB/Core/AVR8/../AVR8/Endpoint_AVR8.h **** 			static inline void Endpoint_EnableEndpoint(void) ATTR_ALWAYS_INLINE;
 352:../../LUFA-111009/LUFA/Drivers/USB/Core/AVR8/../AVR8/Endpoint_AVR8.h **** 			static inline void Endpoint_EnableEndpoint(void)
 353:../../LUFA-111009/LUFA/Drivers/USB/Core/AVR8/../AVR8/Endpoint_AVR8.h **** 			{
 354:../../LUFA-111009/LUFA/Drivers/USB/Core/AVR8/../AVR8/Endpoint_AVR8.h **** 				UECONX |= (1 << EPEN);
 355:../../LUFA-111009/LUFA/Drivers/USB/Core/AVR8/../AVR8/Endpoint_AVR8.h **** 			}
 356:../../LUFA-111009/LUFA/Drivers/USB/Core/AVR8/../AVR8/Endpoint_AVR8.h **** 
 357:../../LUFA-111009/LUFA/Drivers/USB/Core/AVR8/../AVR8/Endpoint_AVR8.h **** 			/** Disables the currently selected endpoint so that data cannot be sent and received through it
 358:../../LUFA-111009/LUFA/Drivers/USB/Core/AVR8/../AVR8/Endpoint_AVR8.h **** 			 *  to and from a host.
 359:../../LUFA-111009/LUFA/Drivers/USB/Core/AVR8/../AVR8/Endpoint_AVR8.h **** 			 */
 360:../../LUFA-111009/LUFA/Drivers/USB/Core/AVR8/../AVR8/Endpoint_AVR8.h **** 			static inline void Endpoint_DisableEndpoint(void) ATTR_ALWAYS_INLINE;
 361:../../LUFA-111009/LUFA/Drivers/USB/Core/AVR8/../AVR8/Endpoint_AVR8.h **** 			static inline void Endpoint_DisableEndpoint(void)
 362:../../LUFA-111009/LUFA/Drivers/USB/Core/AVR8/../AVR8/Endpoint_AVR8.h **** 			{
 363:../../LUFA-111009/LUFA/Drivers/USB/Core/AVR8/../AVR8/Endpoint_AVR8.h **** 				UECONX &= ~(1 << EPEN);
 364:../../LUFA-111009/LUFA/Drivers/USB/Core/AVR8/../AVR8/Endpoint_AVR8.h **** 			}
 365:../../LUFA-111009/LUFA/Drivers/USB/Core/AVR8/../AVR8/Endpoint_AVR8.h **** 
 366:../../LUFA-111009/LUFA/Drivers/USB/Core/AVR8/../AVR8/Endpoint_AVR8.h **** 			/** Determines if the currently selected endpoint is enabled, but not necessarily configured.
 367:../../LUFA-111009/LUFA/Drivers/USB/Core/AVR8/../AVR8/Endpoint_AVR8.h **** 			 *
 368:../../LUFA-111009/LUFA/Drivers/USB/Core/AVR8/../AVR8/Endpoint_AVR8.h **** 			 * \return Boolean \c true if the currently selected endpoint is enabled, \c false otherwise.
 369:../../LUFA-111009/LUFA/Drivers/USB/Core/AVR8/../AVR8/Endpoint_AVR8.h **** 			 */
 370:../../LUFA-111009/LUFA/Drivers/USB/Core/AVR8/../AVR8/Endpoint_AVR8.h **** 			static inline bool Endpoint_IsEnabled(void) ATTR_WARN_UNUSED_RESULT ATTR_ALWAYS_INLINE;
 371:../../LUFA-111009/LUFA/Drivers/USB/Core/AVR8/../AVR8/Endpoint_AVR8.h **** 			static inline bool Endpoint_IsEnabled(void)
 372:../../LUFA-111009/LUFA/Drivers/USB/Core/AVR8/../AVR8/Endpoint_AVR8.h **** 			{
 373:../../LUFA-111009/LUFA/Drivers/USB/Core/AVR8/../AVR8/Endpoint_AVR8.h **** 				return ((UECONX & (1 << EPEN)) ? true : false);
 374:../../LUFA-111009/LUFA/Drivers/USB/Core/AVR8/../AVR8/Endpoint_AVR8.h **** 			}
 375:../../LUFA-111009/LUFA/Drivers/USB/Core/AVR8/../AVR8/Endpoint_AVR8.h **** 
 376:../../LUFA-111009/LUFA/Drivers/USB/Core/AVR8/../AVR8/Endpoint_AVR8.h **** 			/** Retrieves the number of busy banks in the currently selected endpoint, which have been queue
 377:../../LUFA-111009/LUFA/Drivers/USB/Core/AVR8/../AVR8/Endpoint_AVR8.h **** 			 *  transmission via the \ref Endpoint_ClearIN() command, or are awaiting acknowledgement via th
 378:../../LUFA-111009/LUFA/Drivers/USB/Core/AVR8/../AVR8/Endpoint_AVR8.h **** 			 *  \ref Endpoint_ClearOUT() command.
 379:../../LUFA-111009/LUFA/Drivers/USB/Core/AVR8/../AVR8/Endpoint_AVR8.h **** 			 *
 380:../../LUFA-111009/LUFA/Drivers/USB/Core/AVR8/../AVR8/Endpoint_AVR8.h **** 			 *  \ingroup Group_EndpointPacketManagement_AVR8
 381:../../LUFA-111009/LUFA/Drivers/USB/Core/AVR8/../AVR8/Endpoint_AVR8.h **** 			 *
 382:../../LUFA-111009/LUFA/Drivers/USB/Core/AVR8/../AVR8/Endpoint_AVR8.h **** 			 *  \return Total number of busy banks in the selected endpoint.
 383:../../LUFA-111009/LUFA/Drivers/USB/Core/AVR8/../AVR8/Endpoint_AVR8.h **** 			 */
 384:../../LUFA-111009/LUFA/Drivers/USB/Core/AVR8/../AVR8/Endpoint_AVR8.h **** 			static inline uint8_t Endpoint_GetBusyBanks(void) ATTR_ALWAYS_INLINE ATTR_WARN_UNUSED_RESULT;
 385:../../LUFA-111009/LUFA/Drivers/USB/Core/AVR8/../AVR8/Endpoint_AVR8.h **** 			static inline uint8_t Endpoint_GetBusyBanks(void)
 386:../../LUFA-111009/LUFA/Drivers/USB/Core/AVR8/../AVR8/Endpoint_AVR8.h **** 			{
 387:../../LUFA-111009/LUFA/Drivers/USB/Core/AVR8/../AVR8/Endpoint_AVR8.h **** 				return (UESTA0X & (0x03 << NBUSYBK0));
 388:../../LUFA-111009/LUFA/Drivers/USB/Core/AVR8/../AVR8/Endpoint_AVR8.h **** 			}
 389:../../LUFA-111009/LUFA/Drivers/USB/Core/AVR8/../AVR8/Endpoint_AVR8.h **** 
 390:../../LUFA-111009/LUFA/Drivers/USB/Core/AVR8/../AVR8/Endpoint_AVR8.h **** 			/** Aborts all pending IN transactions on the currently selected endpoint, once the bank
 391:../../LUFA-111009/LUFA/Drivers/USB/Core/AVR8/../AVR8/Endpoint_AVR8.h **** 			 *  has been queued for transmission to the host via \ref Endpoint_ClearIN(). This function
 392:../../LUFA-111009/LUFA/Drivers/USB/Core/AVR8/../AVR8/Endpoint_AVR8.h **** 			 *  will terminate all queued transactions, resetting the endpoint banks ready for a new
 393:../../LUFA-111009/LUFA/Drivers/USB/Core/AVR8/../AVR8/Endpoint_AVR8.h **** 			 *  packet.
 394:../../LUFA-111009/LUFA/Drivers/USB/Core/AVR8/../AVR8/Endpoint_AVR8.h **** 			 *
 395:../../LUFA-111009/LUFA/Drivers/USB/Core/AVR8/../AVR8/Endpoint_AVR8.h **** 			 *  \ingroup Group_EndpointPacketManagement_AVR8
 396:../../LUFA-111009/LUFA/Drivers/USB/Core/AVR8/../AVR8/Endpoint_AVR8.h **** 			 */
 397:../../LUFA-111009/LUFA/Drivers/USB/Core/AVR8/../AVR8/Endpoint_AVR8.h **** 			static inline void Endpoint_AbortPendingIN(void)
 398:../../LUFA-111009/LUFA/Drivers/USB/Core/AVR8/../AVR8/Endpoint_AVR8.h **** 			{
 399:../../LUFA-111009/LUFA/Drivers/USB/Core/AVR8/../AVR8/Endpoint_AVR8.h **** 				while (Endpoint_GetBusyBanks() != 0)
 400:../../LUFA-111009/LUFA/Drivers/USB/Core/AVR8/../AVR8/Endpoint_AVR8.h **** 				{
 401:../../LUFA-111009/LUFA/Drivers/USB/Core/AVR8/../AVR8/Endpoint_AVR8.h **** 					UEINTX |= (1 << RXOUTI);
 402:../../LUFA-111009/LUFA/Drivers/USB/Core/AVR8/../AVR8/Endpoint_AVR8.h **** 					while (UEINTX & (1 << RXOUTI));
 403:../../LUFA-111009/LUFA/Drivers/USB/Core/AVR8/../AVR8/Endpoint_AVR8.h **** 				}
 404:../../LUFA-111009/LUFA/Drivers/USB/Core/AVR8/../AVR8/Endpoint_AVR8.h **** 			}
 405:../../LUFA-111009/LUFA/Drivers/USB/Core/AVR8/../AVR8/Endpoint_AVR8.h **** 
 406:../../LUFA-111009/LUFA/Drivers/USB/Core/AVR8/../AVR8/Endpoint_AVR8.h **** 			/** Determines if the currently selected endpoint may be read from (if data is waiting in the en
 407:../../LUFA-111009/LUFA/Drivers/USB/Core/AVR8/../AVR8/Endpoint_AVR8.h **** 			 *  bank and the endpoint is an OUT direction, or if the bank is not yet full if the endpoint is
 408:../../LUFA-111009/LUFA/Drivers/USB/Core/AVR8/../AVR8/Endpoint_AVR8.h **** 			 *  direction). This function will return false if an error has occurred in the endpoint, if the
 409:../../LUFA-111009/LUFA/Drivers/USB/Core/AVR8/../AVR8/Endpoint_AVR8.h **** 			 *  is an OUT direction and no packet (or an empty packet) has been received, or if the endpoint
 410:../../LUFA-111009/LUFA/Drivers/USB/Core/AVR8/../AVR8/Endpoint_AVR8.h **** 			 *  direction and the endpoint bank is full.
 411:../../LUFA-111009/LUFA/Drivers/USB/Core/AVR8/../AVR8/Endpoint_AVR8.h **** 			 *
 412:../../LUFA-111009/LUFA/Drivers/USB/Core/AVR8/../AVR8/Endpoint_AVR8.h **** 			 *  \ingroup Group_EndpointPacketManagement_AVR8
 413:../../LUFA-111009/LUFA/Drivers/USB/Core/AVR8/../AVR8/Endpoint_AVR8.h **** 			 *
 414:../../LUFA-111009/LUFA/Drivers/USB/Core/AVR8/../AVR8/Endpoint_AVR8.h **** 			 *  \return Boolean \c true if the currently selected endpoint may be read from or written to, d
 415:../../LUFA-111009/LUFA/Drivers/USB/Core/AVR8/../AVR8/Endpoint_AVR8.h **** 			 *          on its direction.
 416:../../LUFA-111009/LUFA/Drivers/USB/Core/AVR8/../AVR8/Endpoint_AVR8.h **** 			 */
 417:../../LUFA-111009/LUFA/Drivers/USB/Core/AVR8/../AVR8/Endpoint_AVR8.h **** 			static inline bool Endpoint_IsReadWriteAllowed(void) ATTR_WARN_UNUSED_RESULT ATTR_ALWAYS_INLINE;
 418:../../LUFA-111009/LUFA/Drivers/USB/Core/AVR8/../AVR8/Endpoint_AVR8.h **** 			static inline bool Endpoint_IsReadWriteAllowed(void)
 419:../../LUFA-111009/LUFA/Drivers/USB/Core/AVR8/../AVR8/Endpoint_AVR8.h **** 			{
 420:../../LUFA-111009/LUFA/Drivers/USB/Core/AVR8/../AVR8/Endpoint_AVR8.h **** 				return ((UEINTX & (1 << RWAL)) ? true : false);
  33               		.loc 2 420 0
  34 0006 8091 E800 		lds r24,232
  35               	.LBE84:
  36               	.LBE83:
 505:Caterina.c    **** 	/* Select the OUT endpoint so that the next data byte can be read */
 506:Caterina.c    **** 	Endpoint_SelectEndpoint(CDC_RX_EPNUM);
 507:Caterina.c    **** 
 508:Caterina.c    **** 	/* If OUT endpoint empty, clear it and wait for the next packet from the host */
 509:Caterina.c    **** 	while (!(Endpoint_IsReadWriteAllowed()))
  37               		.loc 1 509 0
  38 000a 85FD      		sbrc r24,5
  39 000c 00C0      		rjmp .L11
  40               	.LBB85:
  41               	.LBB86:
 421:../../LUFA-111009/LUFA/Drivers/USB/Core/AVR8/../AVR8/Endpoint_AVR8.h **** 			}
 422:../../LUFA-111009/LUFA/Drivers/USB/Core/AVR8/../AVR8/Endpoint_AVR8.h **** 
 423:../../LUFA-111009/LUFA/Drivers/USB/Core/AVR8/../AVR8/Endpoint_AVR8.h **** 			/** Determines if the currently selected endpoint is configured.
 424:../../LUFA-111009/LUFA/Drivers/USB/Core/AVR8/../AVR8/Endpoint_AVR8.h **** 			 *
 425:../../LUFA-111009/LUFA/Drivers/USB/Core/AVR8/../AVR8/Endpoint_AVR8.h **** 			 *  \return Boolean \c true if the currently selected endpoint has been configured, \c false oth
 426:../../LUFA-111009/LUFA/Drivers/USB/Core/AVR8/../AVR8/Endpoint_AVR8.h **** 			 */
 427:../../LUFA-111009/LUFA/Drivers/USB/Core/AVR8/../AVR8/Endpoint_AVR8.h **** 			static inline bool Endpoint_IsConfigured(void) ATTR_WARN_UNUSED_RESULT ATTR_ALWAYS_INLINE;
 428:../../LUFA-111009/LUFA/Drivers/USB/Core/AVR8/../AVR8/Endpoint_AVR8.h **** 			static inline bool Endpoint_IsConfigured(void)
 429:../../LUFA-111009/LUFA/Drivers/USB/Core/AVR8/../AVR8/Endpoint_AVR8.h **** 			{
 430:../../LUFA-111009/LUFA/Drivers/USB/Core/AVR8/../AVR8/Endpoint_AVR8.h **** 				return ((UESTA0X & (1 << CFGOK)) ? true : false);
 431:../../LUFA-111009/LUFA/Drivers/USB/Core/AVR8/../AVR8/Endpoint_AVR8.h **** 			}
 432:../../LUFA-111009/LUFA/Drivers/USB/Core/AVR8/../AVR8/Endpoint_AVR8.h **** 
 433:../../LUFA-111009/LUFA/Drivers/USB/Core/AVR8/../AVR8/Endpoint_AVR8.h **** 			/** Returns a mask indicating which INTERRUPT type endpoints have interrupted - i.e. their
 434:../../LUFA-111009/LUFA/Drivers/USB/Core/AVR8/../AVR8/Endpoint_AVR8.h **** 			 *  interrupt duration has elapsed. Which endpoints have interrupted can be determined by
 435:../../LUFA-111009/LUFA/Drivers/USB/Core/AVR8/../AVR8/Endpoint_AVR8.h **** 			 *  masking the return value against <tt>(1 << <i>{Endpoint Number}</i>)</tt>.
 436:../../LUFA-111009/LUFA/Drivers/USB/Core/AVR8/../AVR8/Endpoint_AVR8.h **** 			 *
 437:../../LUFA-111009/LUFA/Drivers/USB/Core/AVR8/../AVR8/Endpoint_AVR8.h **** 			 *  \return Mask whose bits indicate which endpoints have interrupted.
 438:../../LUFA-111009/LUFA/Drivers/USB/Core/AVR8/../AVR8/Endpoint_AVR8.h **** 			 */
 439:../../LUFA-111009/LUFA/Drivers/USB/Core/AVR8/../AVR8/Endpoint_AVR8.h **** 			static inline uint8_t Endpoint_GetEndpointInterrupts(void) ATTR_WARN_UNUSED_RESULT ATTR_ALWAYS_I
 440:../../LUFA-111009/LUFA/Drivers/USB/Core/AVR8/../AVR8/Endpoint_AVR8.h **** 			static inline uint8_t Endpoint_GetEndpointInterrupts(void)
 441:../../LUFA-111009/LUFA/Drivers/USB/Core/AVR8/../AVR8/Endpoint_AVR8.h **** 			{
 442:../../LUFA-111009/LUFA/Drivers/USB/Core/AVR8/../AVR8/Endpoint_AVR8.h **** 				return UEINT;
 443:../../LUFA-111009/LUFA/Drivers/USB/Core/AVR8/../AVR8/Endpoint_AVR8.h **** 			}
 444:../../LUFA-111009/LUFA/Drivers/USB/Core/AVR8/../AVR8/Endpoint_AVR8.h **** 
 445:../../LUFA-111009/LUFA/Drivers/USB/Core/AVR8/../AVR8/Endpoint_AVR8.h **** 			/** Determines if the specified endpoint number has interrupted (valid only for INTERRUPT type
 446:../../LUFA-111009/LUFA/Drivers/USB/Core/AVR8/../AVR8/Endpoint_AVR8.h **** 			 *  endpoints).
 447:../../LUFA-111009/LUFA/Drivers/USB/Core/AVR8/../AVR8/Endpoint_AVR8.h **** 			 *
 448:../../LUFA-111009/LUFA/Drivers/USB/Core/AVR8/../AVR8/Endpoint_AVR8.h **** 			 *  \param[in] EndpointNumber  Index of the endpoint whose interrupt flag should be tested.
 449:../../LUFA-111009/LUFA/Drivers/USB/Core/AVR8/../AVR8/Endpoint_AVR8.h **** 			 *
 450:../../LUFA-111009/LUFA/Drivers/USB/Core/AVR8/../AVR8/Endpoint_AVR8.h **** 			 *  \return Boolean \c true if the specified endpoint has interrupted, \c false otherwise.
 451:../../LUFA-111009/LUFA/Drivers/USB/Core/AVR8/../AVR8/Endpoint_AVR8.h **** 			 */
 452:../../LUFA-111009/LUFA/Drivers/USB/Core/AVR8/../AVR8/Endpoint_AVR8.h **** 			static inline bool Endpoint_HasEndpointInterrupted(const uint8_t EndpointNumber) ATTR_WARN_UNUSE
 453:../../LUFA-111009/LUFA/Drivers/USB/Core/AVR8/../AVR8/Endpoint_AVR8.h **** 			static inline bool Endpoint_HasEndpointInterrupted(const uint8_t EndpointNumber)
 454:../../LUFA-111009/LUFA/Drivers/USB/Core/AVR8/../AVR8/Endpoint_AVR8.h **** 			{
 455:../../LUFA-111009/LUFA/Drivers/USB/Core/AVR8/../AVR8/Endpoint_AVR8.h **** 				return ((Endpoint_GetEndpointInterrupts() & (1 << EndpointNumber)) ? true : false);
 456:../../LUFA-111009/LUFA/Drivers/USB/Core/AVR8/../AVR8/Endpoint_AVR8.h **** 			}
 457:../../LUFA-111009/LUFA/Drivers/USB/Core/AVR8/../AVR8/Endpoint_AVR8.h **** 
 458:../../LUFA-111009/LUFA/Drivers/USB/Core/AVR8/../AVR8/Endpoint_AVR8.h **** 			/** Determines if the selected IN endpoint is ready for a new packet to be sent to the host.
 459:../../LUFA-111009/LUFA/Drivers/USB/Core/AVR8/../AVR8/Endpoint_AVR8.h **** 			 *
 460:../../LUFA-111009/LUFA/Drivers/USB/Core/AVR8/../AVR8/Endpoint_AVR8.h **** 			 *  \ingroup Group_EndpointPacketManagement_AVR8
 461:../../LUFA-111009/LUFA/Drivers/USB/Core/AVR8/../AVR8/Endpoint_AVR8.h **** 			 *
 462:../../LUFA-111009/LUFA/Drivers/USB/Core/AVR8/../AVR8/Endpoint_AVR8.h **** 			 *  \return Boolean \c true if the current endpoint is ready for an IN packet, \c false otherwis
 463:../../LUFA-111009/LUFA/Drivers/USB/Core/AVR8/../AVR8/Endpoint_AVR8.h **** 			 */
 464:../../LUFA-111009/LUFA/Drivers/USB/Core/AVR8/../AVR8/Endpoint_AVR8.h **** 			static inline bool Endpoint_IsINReady(void) ATTR_WARN_UNUSED_RESULT ATTR_ALWAYS_INLINE;
 465:../../LUFA-111009/LUFA/Drivers/USB/Core/AVR8/../AVR8/Endpoint_AVR8.h **** 			static inline bool Endpoint_IsINReady(void)
 466:../../LUFA-111009/LUFA/Drivers/USB/Core/AVR8/../AVR8/Endpoint_AVR8.h **** 			{
 467:../../LUFA-111009/LUFA/Drivers/USB/Core/AVR8/../AVR8/Endpoint_AVR8.h **** 				return ((UEINTX & (1 << TXINI)) ? true : false);
 468:../../LUFA-111009/LUFA/Drivers/USB/Core/AVR8/../AVR8/Endpoint_AVR8.h **** 			}
 469:../../LUFA-111009/LUFA/Drivers/USB/Core/AVR8/../AVR8/Endpoint_AVR8.h **** 
 470:../../LUFA-111009/LUFA/Drivers/USB/Core/AVR8/../AVR8/Endpoint_AVR8.h **** 			/** Determines if the selected OUT endpoint has received new packet from the host.
 471:../../LUFA-111009/LUFA/Drivers/USB/Core/AVR8/../AVR8/Endpoint_AVR8.h **** 			 *
 472:../../LUFA-111009/LUFA/Drivers/USB/Core/AVR8/../AVR8/Endpoint_AVR8.h **** 			 *  \ingroup Group_EndpointPacketManagement_AVR8
 473:../../LUFA-111009/LUFA/Drivers/USB/Core/AVR8/../AVR8/Endpoint_AVR8.h **** 			 *
 474:../../LUFA-111009/LUFA/Drivers/USB/Core/AVR8/../AVR8/Endpoint_AVR8.h **** 			 *  \return Boolean \c true if current endpoint is has received an OUT packet, \c false otherwis
 475:../../LUFA-111009/LUFA/Drivers/USB/Core/AVR8/../AVR8/Endpoint_AVR8.h **** 			 */
 476:../../LUFA-111009/LUFA/Drivers/USB/Core/AVR8/../AVR8/Endpoint_AVR8.h **** 			static inline bool Endpoint_IsOUTReceived(void) ATTR_WARN_UNUSED_RESULT ATTR_ALWAYS_INLINE;
 477:../../LUFA-111009/LUFA/Drivers/USB/Core/AVR8/../AVR8/Endpoint_AVR8.h **** 			static inline bool Endpoint_IsOUTReceived(void)
 478:../../LUFA-111009/LUFA/Drivers/USB/Core/AVR8/../AVR8/Endpoint_AVR8.h **** 			{
 479:../../LUFA-111009/LUFA/Drivers/USB/Core/AVR8/../AVR8/Endpoint_AVR8.h **** 				return ((UEINTX & (1 << RXOUTI)) ? true : false);
 480:../../LUFA-111009/LUFA/Drivers/USB/Core/AVR8/../AVR8/Endpoint_AVR8.h **** 			}
 481:../../LUFA-111009/LUFA/Drivers/USB/Core/AVR8/../AVR8/Endpoint_AVR8.h **** 
 482:../../LUFA-111009/LUFA/Drivers/USB/Core/AVR8/../AVR8/Endpoint_AVR8.h **** 			/** Determines if the current CONTROL type endpoint has received a SETUP packet.
 483:../../LUFA-111009/LUFA/Drivers/USB/Core/AVR8/../AVR8/Endpoint_AVR8.h **** 			 *
 484:../../LUFA-111009/LUFA/Drivers/USB/Core/AVR8/../AVR8/Endpoint_AVR8.h **** 			 *  \ingroup Group_EndpointPacketManagement_AVR8
 485:../../LUFA-111009/LUFA/Drivers/USB/Core/AVR8/../AVR8/Endpoint_AVR8.h **** 			 *
 486:../../LUFA-111009/LUFA/Drivers/USB/Core/AVR8/../AVR8/Endpoint_AVR8.h **** 			 *  \return Boolean \c true if the selected endpoint has received a SETUP packet, \c false other
 487:../../LUFA-111009/LUFA/Drivers/USB/Core/AVR8/../AVR8/Endpoint_AVR8.h **** 			 */
 488:../../LUFA-111009/LUFA/Drivers/USB/Core/AVR8/../AVR8/Endpoint_AVR8.h **** 			static inline bool Endpoint_IsSETUPReceived(void) ATTR_WARN_UNUSED_RESULT ATTR_ALWAYS_INLINE;
 489:../../LUFA-111009/LUFA/Drivers/USB/Core/AVR8/../AVR8/Endpoint_AVR8.h **** 			static inline bool Endpoint_IsSETUPReceived(void)
 490:../../LUFA-111009/LUFA/Drivers/USB/Core/AVR8/../AVR8/Endpoint_AVR8.h **** 			{
 491:../../LUFA-111009/LUFA/Drivers/USB/Core/AVR8/../AVR8/Endpoint_AVR8.h **** 				return ((UEINTX & (1 << RXSTPI)) ? true : false);
 492:../../LUFA-111009/LUFA/Drivers/USB/Core/AVR8/../AVR8/Endpoint_AVR8.h **** 			}
 493:../../LUFA-111009/LUFA/Drivers/USB/Core/AVR8/../AVR8/Endpoint_AVR8.h **** 
 494:../../LUFA-111009/LUFA/Drivers/USB/Core/AVR8/../AVR8/Endpoint_AVR8.h **** 			/** Clears a received SETUP packet on the currently selected CONTROL type endpoint, freeing up t
 495:../../LUFA-111009/LUFA/Drivers/USB/Core/AVR8/../AVR8/Endpoint_AVR8.h **** 			 *  endpoint for the next packet.
 496:../../LUFA-111009/LUFA/Drivers/USB/Core/AVR8/../AVR8/Endpoint_AVR8.h **** 			 *
 497:../../LUFA-111009/LUFA/Drivers/USB/Core/AVR8/../AVR8/Endpoint_AVR8.h **** 			 *  \ingroup Group_EndpointPacketManagement_AVR8
 498:../../LUFA-111009/LUFA/Drivers/USB/Core/AVR8/../AVR8/Endpoint_AVR8.h **** 			 *
 499:../../LUFA-111009/LUFA/Drivers/USB/Core/AVR8/../AVR8/Endpoint_AVR8.h **** 			 *  \note This is not applicable for non CONTROL type endpoints.
 500:../../LUFA-111009/LUFA/Drivers/USB/Core/AVR8/../AVR8/Endpoint_AVR8.h **** 			 */
 501:../../LUFA-111009/LUFA/Drivers/USB/Core/AVR8/../AVR8/Endpoint_AVR8.h **** 			static inline void Endpoint_ClearSETUP(void) ATTR_ALWAYS_INLINE;
 502:../../LUFA-111009/LUFA/Drivers/USB/Core/AVR8/../AVR8/Endpoint_AVR8.h **** 			static inline void Endpoint_ClearSETUP(void)
 503:../../LUFA-111009/LUFA/Drivers/USB/Core/AVR8/../AVR8/Endpoint_AVR8.h **** 			{
 504:../../LUFA-111009/LUFA/Drivers/USB/Core/AVR8/../AVR8/Endpoint_AVR8.h **** 				UEINTX &= ~(1 << RXSTPI);
 505:../../LUFA-111009/LUFA/Drivers/USB/Core/AVR8/../AVR8/Endpoint_AVR8.h **** 			}
 506:../../LUFA-111009/LUFA/Drivers/USB/Core/AVR8/../AVR8/Endpoint_AVR8.h **** 
 507:../../LUFA-111009/LUFA/Drivers/USB/Core/AVR8/../AVR8/Endpoint_AVR8.h **** 			/** Sends an IN packet to the host on the currently selected endpoint, freeing up the endpoint f
 508:../../LUFA-111009/LUFA/Drivers/USB/Core/AVR8/../AVR8/Endpoint_AVR8.h **** 			 *  next packet and switching to the alternative endpoint bank if double banked.
 509:../../LUFA-111009/LUFA/Drivers/USB/Core/AVR8/../AVR8/Endpoint_AVR8.h **** 			 *
 510:../../LUFA-111009/LUFA/Drivers/USB/Core/AVR8/../AVR8/Endpoint_AVR8.h **** 			 *  \ingroup Group_EndpointPacketManagement_AVR8
 511:../../LUFA-111009/LUFA/Drivers/USB/Core/AVR8/../AVR8/Endpoint_AVR8.h **** 			 */
 512:../../LUFA-111009/LUFA/Drivers/USB/Core/AVR8/../AVR8/Endpoint_AVR8.h **** 			static inline void Endpoint_ClearIN(void) ATTR_ALWAYS_INLINE;
 513:../../LUFA-111009/LUFA/Drivers/USB/Core/AVR8/../AVR8/Endpoint_AVR8.h **** 			static inline void Endpoint_ClearIN(void)
 514:../../LUFA-111009/LUFA/Drivers/USB/Core/AVR8/../AVR8/Endpoint_AVR8.h **** 			{
 515:../../LUFA-111009/LUFA/Drivers/USB/Core/AVR8/../AVR8/Endpoint_AVR8.h **** 				#if !defined(CONTROL_ONLY_DEVICE)
 516:../../LUFA-111009/LUFA/Drivers/USB/Core/AVR8/../AVR8/Endpoint_AVR8.h **** 					UEINTX &= ~((1 << TXINI) | (1 << FIFOCON));
 517:../../LUFA-111009/LUFA/Drivers/USB/Core/AVR8/../AVR8/Endpoint_AVR8.h **** 				#else
 518:../../LUFA-111009/LUFA/Drivers/USB/Core/AVR8/../AVR8/Endpoint_AVR8.h **** 					UEINTX &= ~(1 << TXINI);
 519:../../LUFA-111009/LUFA/Drivers/USB/Core/AVR8/../AVR8/Endpoint_AVR8.h **** 				#endif
 520:../../LUFA-111009/LUFA/Drivers/USB/Core/AVR8/../AVR8/Endpoint_AVR8.h **** 			}
 521:../../LUFA-111009/LUFA/Drivers/USB/Core/AVR8/../AVR8/Endpoint_AVR8.h **** 
 522:../../LUFA-111009/LUFA/Drivers/USB/Core/AVR8/../AVR8/Endpoint_AVR8.h **** 			/** Acknowledges an OUT packet to the host on the currently selected endpoint, freeing up the en
 523:../../LUFA-111009/LUFA/Drivers/USB/Core/AVR8/../AVR8/Endpoint_AVR8.h **** 			 *  for the next packet and switching to the alternative endpoint bank if double banked.
 524:../../LUFA-111009/LUFA/Drivers/USB/Core/AVR8/../AVR8/Endpoint_AVR8.h **** 			 *
 525:../../LUFA-111009/LUFA/Drivers/USB/Core/AVR8/../AVR8/Endpoint_AVR8.h **** 			 *  \ingroup Group_EndpointPacketManagement_AVR8
 526:../../LUFA-111009/LUFA/Drivers/USB/Core/AVR8/../AVR8/Endpoint_AVR8.h **** 			 */
 527:../../LUFA-111009/LUFA/Drivers/USB/Core/AVR8/../AVR8/Endpoint_AVR8.h **** 			static inline void Endpoint_ClearOUT(void) ATTR_ALWAYS_INLINE;
 528:../../LUFA-111009/LUFA/Drivers/USB/Core/AVR8/../AVR8/Endpoint_AVR8.h **** 			static inline void Endpoint_ClearOUT(void)
 529:../../LUFA-111009/LUFA/Drivers/USB/Core/AVR8/../AVR8/Endpoint_AVR8.h **** 			{
 530:../../LUFA-111009/LUFA/Drivers/USB/Core/AVR8/../AVR8/Endpoint_AVR8.h **** 				#if !defined(CONTROL_ONLY_DEVICE)
 531:../../LUFA-111009/LUFA/Drivers/USB/Core/AVR8/../AVR8/Endpoint_AVR8.h **** 					UEINTX &= ~((1 << RXOUTI) | (1 << FIFOCON));
  42               		.loc 2 531 0
  43 000e 8091 E800 		lds r24,232
  44 0012 8B77      		andi r24,lo8(123)
  45 0014 8093 E800 		sts 232,r24
  46               	.L3:
  47               	.LBE86:
  48               	.LBE85:
  49               	.LBB87:
  50               	.LBB88:
 479:../../LUFA-111009/LUFA/Drivers/USB/Core/AVR8/../AVR8/Endpoint_AVR8.h **** 			}
  51               		.loc 2 479 0
  52 0018 8091 E800 		lds r24,232
  53               	.LBE88:
  54               	.LBE87:
 510:Caterina.c    **** 	{
 511:Caterina.c    **** 		Endpoint_ClearOUT();
 512:Caterina.c    **** 
 513:Caterina.c    **** 		while (!(Endpoint_IsOUTReceived()))
  55               		.loc 1 513 0
  56 001c 82FD      		sbrc r24,2
  57 001e 00C0      		rjmp .L2
 514:Caterina.c    **** 		{
 515:Caterina.c    **** 			if (USB_DeviceState == DEVICE_STATE_Unattached)
  58               		.loc 1 515 0
  59 0020 8EB3      		in r24,0x1e
  60 0022 8111      		cpse r24,__zero_reg__
  61 0024 00C0      		rjmp .L3
  62 0026 00C0      		rjmp .L4
  63               	.L11:
  64               	.LBB89:
  65               	.LBB90:
 532:../../LUFA-111009/LUFA/Drivers/USB/Core/AVR8/../AVR8/Endpoint_AVR8.h **** 				#else
 533:../../LUFA-111009/LUFA/Drivers/USB/Core/AVR8/../AVR8/Endpoint_AVR8.h **** 					UEINTX &= ~(1 << RXOUTI);
 534:../../LUFA-111009/LUFA/Drivers/USB/Core/AVR8/../AVR8/Endpoint_AVR8.h **** 				#endif
 535:../../LUFA-111009/LUFA/Drivers/USB/Core/AVR8/../AVR8/Endpoint_AVR8.h **** 			}
 536:../../LUFA-111009/LUFA/Drivers/USB/Core/AVR8/../AVR8/Endpoint_AVR8.h **** 
 537:../../LUFA-111009/LUFA/Drivers/USB/Core/AVR8/../AVR8/Endpoint_AVR8.h **** 			/** Stalls the current endpoint, indicating to the host that a logical problem occurred with the
 538:../../LUFA-111009/LUFA/Drivers/USB/Core/AVR8/../AVR8/Endpoint_AVR8.h **** 			 *  indicated endpoint and that the current transfer sequence should be aborted. This provides a
 539:../../LUFA-111009/LUFA/Drivers/USB/Core/AVR8/../AVR8/Endpoint_AVR8.h **** 			 *  way for devices to indicate invalid commands to the host so that the current transfer can be
 540:../../LUFA-111009/LUFA/Drivers/USB/Core/AVR8/../AVR8/Endpoint_AVR8.h **** 			 *  aborted and the host can begin its own recovery sequence.
 541:../../LUFA-111009/LUFA/Drivers/USB/Core/AVR8/../AVR8/Endpoint_AVR8.h **** 			 *
 542:../../LUFA-111009/LUFA/Drivers/USB/Core/AVR8/../AVR8/Endpoint_AVR8.h **** 			 *  The currently selected endpoint remains stalled until either the \ref Endpoint_ClearStall() 
 543:../../LUFA-111009/LUFA/Drivers/USB/Core/AVR8/../AVR8/Endpoint_AVR8.h **** 			 *  is called, or the host issues a CLEAR FEATURE request to the device for the currently select
 544:../../LUFA-111009/LUFA/Drivers/USB/Core/AVR8/../AVR8/Endpoint_AVR8.h **** 			 *  endpoint.
 545:../../LUFA-111009/LUFA/Drivers/USB/Core/AVR8/../AVR8/Endpoint_AVR8.h **** 			 *
 546:../../LUFA-111009/LUFA/Drivers/USB/Core/AVR8/../AVR8/Endpoint_AVR8.h **** 			 *  \ingroup Group_EndpointPacketManagement_AVR8
 547:../../LUFA-111009/LUFA/Drivers/USB/Core/AVR8/../AVR8/Endpoint_AVR8.h **** 			 */
 548:../../LUFA-111009/LUFA/Drivers/USB/Core/AVR8/../AVR8/Endpoint_AVR8.h **** 			static inline void Endpoint_StallTransaction(void) ATTR_ALWAYS_INLINE;
 549:../../LUFA-111009/LUFA/Drivers/USB/Core/AVR8/../AVR8/Endpoint_AVR8.h **** 			static inline void Endpoint_StallTransaction(void)
 550:../../LUFA-111009/LUFA/Drivers/USB/Core/AVR8/../AVR8/Endpoint_AVR8.h **** 			{
 551:../../LUFA-111009/LUFA/Drivers/USB/Core/AVR8/../AVR8/Endpoint_AVR8.h **** 				UECONX |= (1 << STALLRQ);
 552:../../LUFA-111009/LUFA/Drivers/USB/Core/AVR8/../AVR8/Endpoint_AVR8.h **** 			}
 553:../../LUFA-111009/LUFA/Drivers/USB/Core/AVR8/../AVR8/Endpoint_AVR8.h **** 
 554:../../LUFA-111009/LUFA/Drivers/USB/Core/AVR8/../AVR8/Endpoint_AVR8.h **** 			/** Clears the STALL condition on the currently selected endpoint.
 555:../../LUFA-111009/LUFA/Drivers/USB/Core/AVR8/../AVR8/Endpoint_AVR8.h **** 			 *
 556:../../LUFA-111009/LUFA/Drivers/USB/Core/AVR8/../AVR8/Endpoint_AVR8.h **** 			 *  \ingroup Group_EndpointPacketManagement_AVR8
 557:../../LUFA-111009/LUFA/Drivers/USB/Core/AVR8/../AVR8/Endpoint_AVR8.h **** 			 */
 558:../../LUFA-111009/LUFA/Drivers/USB/Core/AVR8/../AVR8/Endpoint_AVR8.h **** 			static inline void Endpoint_ClearStall(void) ATTR_ALWAYS_INLINE;
 559:../../LUFA-111009/LUFA/Drivers/USB/Core/AVR8/../AVR8/Endpoint_AVR8.h **** 			static inline void Endpoint_ClearStall(void)
 560:../../LUFA-111009/LUFA/Drivers/USB/Core/AVR8/../AVR8/Endpoint_AVR8.h **** 			{
 561:../../LUFA-111009/LUFA/Drivers/USB/Core/AVR8/../AVR8/Endpoint_AVR8.h **** 				UECONX |= (1 << STALLRQC);
 562:../../LUFA-111009/LUFA/Drivers/USB/Core/AVR8/../AVR8/Endpoint_AVR8.h **** 			}
 563:../../LUFA-111009/LUFA/Drivers/USB/Core/AVR8/../AVR8/Endpoint_AVR8.h **** 
 564:../../LUFA-111009/LUFA/Drivers/USB/Core/AVR8/../AVR8/Endpoint_AVR8.h **** 			/** Determines if the currently selected endpoint is stalled, false otherwise.
 565:../../LUFA-111009/LUFA/Drivers/USB/Core/AVR8/../AVR8/Endpoint_AVR8.h **** 			 *
 566:../../LUFA-111009/LUFA/Drivers/USB/Core/AVR8/../AVR8/Endpoint_AVR8.h **** 			 *  \ingroup Group_EndpointPacketManagement_AVR8
 567:../../LUFA-111009/LUFA/Drivers/USB/Core/AVR8/../AVR8/Endpoint_AVR8.h **** 			 *
 568:../../LUFA-111009/LUFA/Drivers/USB/Core/AVR8/../AVR8/Endpoint_AVR8.h **** 			 *  \return Boolean \c true if the currently selected endpoint is stalled, \c false otherwise.
 569:../../LUFA-111009/LUFA/Drivers/USB/Core/AVR8/../AVR8/Endpoint_AVR8.h **** 			 */
 570:../../LUFA-111009/LUFA/Drivers/USB/Core/AVR8/../AVR8/Endpoint_AVR8.h **** 			static inline bool Endpoint_IsStalled(void) ATTR_WARN_UNUSED_RESULT ATTR_ALWAYS_INLINE;
 571:../../LUFA-111009/LUFA/Drivers/USB/Core/AVR8/../AVR8/Endpoint_AVR8.h **** 			static inline bool Endpoint_IsStalled(void)
 572:../../LUFA-111009/LUFA/Drivers/USB/Core/AVR8/../AVR8/Endpoint_AVR8.h **** 			{
 573:../../LUFA-111009/LUFA/Drivers/USB/Core/AVR8/../AVR8/Endpoint_AVR8.h **** 				return ((UECONX & (1 << STALLRQ)) ? true : false);
 574:../../LUFA-111009/LUFA/Drivers/USB/Core/AVR8/../AVR8/Endpoint_AVR8.h **** 			}
 575:../../LUFA-111009/LUFA/Drivers/USB/Core/AVR8/../AVR8/Endpoint_AVR8.h **** 
 576:../../LUFA-111009/LUFA/Drivers/USB/Core/AVR8/../AVR8/Endpoint_AVR8.h **** 			/** Resets the data toggle of the currently selected endpoint. */
 577:../../LUFA-111009/LUFA/Drivers/USB/Core/AVR8/../AVR8/Endpoint_AVR8.h **** 			static inline void Endpoint_ResetDataToggle(void) ATTR_ALWAYS_INLINE;
 578:../../LUFA-111009/LUFA/Drivers/USB/Core/AVR8/../AVR8/Endpoint_AVR8.h **** 			static inline void Endpoint_ResetDataToggle(void)
 579:../../LUFA-111009/LUFA/Drivers/USB/Core/AVR8/../AVR8/Endpoint_AVR8.h **** 			{
 580:../../LUFA-111009/LUFA/Drivers/USB/Core/AVR8/../AVR8/Endpoint_AVR8.h **** 				UECONX |= (1 << RSTDT);
 581:../../LUFA-111009/LUFA/Drivers/USB/Core/AVR8/../AVR8/Endpoint_AVR8.h **** 			}
 582:../../LUFA-111009/LUFA/Drivers/USB/Core/AVR8/../AVR8/Endpoint_AVR8.h **** 
 583:../../LUFA-111009/LUFA/Drivers/USB/Core/AVR8/../AVR8/Endpoint_AVR8.h **** 			/** Determines the currently selected endpoint's direction.
 584:../../LUFA-111009/LUFA/Drivers/USB/Core/AVR8/../AVR8/Endpoint_AVR8.h **** 			 *
 585:../../LUFA-111009/LUFA/Drivers/USB/Core/AVR8/../AVR8/Endpoint_AVR8.h **** 			 *  \return The currently selected endpoint's direction, as a \c ENDPOINT_DIR_* mask.
 586:../../LUFA-111009/LUFA/Drivers/USB/Core/AVR8/../AVR8/Endpoint_AVR8.h **** 			 */
 587:../../LUFA-111009/LUFA/Drivers/USB/Core/AVR8/../AVR8/Endpoint_AVR8.h **** 			static inline uint8_t Endpoint_GetEndpointDirection(void) ATTR_WARN_UNUSED_RESULT ATTR_ALWAYS_IN
 588:../../LUFA-111009/LUFA/Drivers/USB/Core/AVR8/../AVR8/Endpoint_AVR8.h **** 			static inline uint8_t Endpoint_GetEndpointDirection(void)
 589:../../LUFA-111009/LUFA/Drivers/USB/Core/AVR8/../AVR8/Endpoint_AVR8.h **** 			{
 590:../../LUFA-111009/LUFA/Drivers/USB/Core/AVR8/../AVR8/Endpoint_AVR8.h **** 				return (UECFG0X & (1 << EPDIR)) ? ENDPOINT_DIR_IN : ENDPOINT_DIR_OUT;
 591:../../LUFA-111009/LUFA/Drivers/USB/Core/AVR8/../AVR8/Endpoint_AVR8.h **** 			}
 592:../../LUFA-111009/LUFA/Drivers/USB/Core/AVR8/../AVR8/Endpoint_AVR8.h **** 
 593:../../LUFA-111009/LUFA/Drivers/USB/Core/AVR8/../AVR8/Endpoint_AVR8.h **** 			/** Sets the direction of the currently selected endpoint.
 594:../../LUFA-111009/LUFA/Drivers/USB/Core/AVR8/../AVR8/Endpoint_AVR8.h **** 			 *
 595:../../LUFA-111009/LUFA/Drivers/USB/Core/AVR8/../AVR8/Endpoint_AVR8.h **** 			 *  \param[in] DirectionMask  New endpoint direction, as a \c ENDPOINT_DIR_* mask.
 596:../../LUFA-111009/LUFA/Drivers/USB/Core/AVR8/../AVR8/Endpoint_AVR8.h **** 			 */
 597:../../LUFA-111009/LUFA/Drivers/USB/Core/AVR8/../AVR8/Endpoint_AVR8.h **** 			static inline void Endpoint_SetEndpointDirection(const uint8_t DirectionMask) ATTR_ALWAYS_INLINE
 598:../../LUFA-111009/LUFA/Drivers/USB/Core/AVR8/../AVR8/Endpoint_AVR8.h **** 			static inline void Endpoint_SetEndpointDirection(const uint8_t DirectionMask)
 599:../../LUFA-111009/LUFA/Drivers/USB/Core/AVR8/../AVR8/Endpoint_AVR8.h **** 			{
 600:../../LUFA-111009/LUFA/Drivers/USB/Core/AVR8/../AVR8/Endpoint_AVR8.h **** 				UECFG0X = ((UECFG0X & ~(1 << EPDIR)) | (DirectionMask ? (1 << EPDIR) : 0));
 601:../../LUFA-111009/LUFA/Drivers/USB/Core/AVR8/../AVR8/Endpoint_AVR8.h **** 			}
 602:../../LUFA-111009/LUFA/Drivers/USB/Core/AVR8/../AVR8/Endpoint_AVR8.h **** 
 603:../../LUFA-111009/LUFA/Drivers/USB/Core/AVR8/../AVR8/Endpoint_AVR8.h **** 			/** Reads one byte from the currently selected endpoint's bank, for OUT direction endpoints.
 604:../../LUFA-111009/LUFA/Drivers/USB/Core/AVR8/../AVR8/Endpoint_AVR8.h **** 			 *
 605:../../LUFA-111009/LUFA/Drivers/USB/Core/AVR8/../AVR8/Endpoint_AVR8.h **** 			 *  \ingroup Group_EndpointPrimitiveRW_AVR8
 606:../../LUFA-111009/LUFA/Drivers/USB/Core/AVR8/../AVR8/Endpoint_AVR8.h **** 			 *
 607:../../LUFA-111009/LUFA/Drivers/USB/Core/AVR8/../AVR8/Endpoint_AVR8.h **** 			 *  \return Next byte in the currently selected endpoint's FIFO buffer.
 608:../../LUFA-111009/LUFA/Drivers/USB/Core/AVR8/../AVR8/Endpoint_AVR8.h **** 			 */
 609:../../LUFA-111009/LUFA/Drivers/USB/Core/AVR8/../AVR8/Endpoint_AVR8.h **** 			static inline uint8_t Endpoint_Read_8(void) ATTR_WARN_UNUSED_RESULT ATTR_ALWAYS_INLINE;
 610:../../LUFA-111009/LUFA/Drivers/USB/Core/AVR8/../AVR8/Endpoint_AVR8.h **** 			static inline uint8_t Endpoint_Read_8(void)
 611:../../LUFA-111009/LUFA/Drivers/USB/Core/AVR8/../AVR8/Endpoint_AVR8.h **** 			{
 612:../../LUFA-111009/LUFA/Drivers/USB/Core/AVR8/../AVR8/Endpoint_AVR8.h **** 				return UEDATX;
  66               		.loc 2 612 0
  67 0028 8091 F100 		lds r24,241
  68               	.L4:
  69               	.LBE90:
  70               	.LBE89:
 516:Caterina.c    **** 			  return 0;
 517:Caterina.c    **** 		}
 518:Caterina.c    **** 	}
 519:Caterina.c    **** 
 520:Caterina.c    **** 	/* Fetch the next byte from the OUT endpoint */
 521:Caterina.c    **** 	return Endpoint_Read_8();
 522:Caterina.c    **** }
  71               		.loc 1 522 0
  72 002c 0895      		ret
  73               		.cfi_endproc
  74               	.LFE105:
  76               		.section	.text.WriteNextResponseByte,"ax",@progbits
  78               	WriteNextResponseByte:
  79               	.LFB106:
 523:Caterina.c    **** 
 524:Caterina.c    **** /** Writes the next response byte to the CDC data IN endpoint, and sends the endpoint back if neede
 525:Caterina.c    ****  *  bank when full ready for the next byte in the packet to the host.
 526:Caterina.c    ****  *
 527:Caterina.c    ****  *  \param[in] Response  Next response byte to send to the host
 528:Caterina.c    ****  */
 529:Caterina.c    **** static void WriteNextResponseByte(const uint8_t Response)
 530:Caterina.c    **** {
  80               		.loc 1 530 0
  81               		.cfi_startproc
  82               	.LVL1:
  83               	/* prologue: function */
  84               	/* frame size = 0 */
  85               	/* stack size = 0 */
  86               	.L__stack_usage = 0
  87               	.LBB91:
  88               	.LBB92:
 330:../../LUFA-111009/LUFA/Drivers/USB/Core/AVR8/../AVR8/Endpoint_AVR8.h **** 				#endif
  89               		.loc 2 330 0
  90 0000 93E0      		ldi r25,lo8(3)
  91 0002 9093 E900 		sts 233,r25
  92               	.LVL2:
  93               	.LBE92:
  94               	.LBE91:
  95               	.LBB93:
  96               	.LBB94:
 420:../../LUFA-111009/LUFA/Drivers/USB/Core/AVR8/../AVR8/Endpoint_AVR8.h **** 			}
  97               		.loc 2 420 0
  98 0006 9091 E800 		lds r25,232
  99               	.LBE94:
 100               	.LBE93:
 531:Caterina.c    **** 	/* Select the IN endpoint so that the next data byte can be written */
 532:Caterina.c    **** 	Endpoint_SelectEndpoint(CDC_TX_EPNUM);
 533:Caterina.c    **** 
 534:Caterina.c    **** 	/* If IN endpoint full, clear it and wait until ready for the next packet to the host */
 535:Caterina.c    **** 	if (!(Endpoint_IsReadWriteAllowed()))
 101               		.loc 1 535 0
 102 000a 95FF      		sbrs r25,5
 103 000c 00C0      		rjmp .L13
 104               	.L17:
 105               	.LVL3:
 106               	.LBB95:
 107               	.LBB96:
 613:../../LUFA-111009/LUFA/Drivers/USB/Core/AVR8/../AVR8/Endpoint_AVR8.h **** 			}
 614:../../LUFA-111009/LUFA/Drivers/USB/Core/AVR8/../AVR8/Endpoint_AVR8.h **** 
 615:../../LUFA-111009/LUFA/Drivers/USB/Core/AVR8/../AVR8/Endpoint_AVR8.h **** 			/** Writes one byte to the currently selected endpoint's bank, for IN direction endpoints.
 616:../../LUFA-111009/LUFA/Drivers/USB/Core/AVR8/../AVR8/Endpoint_AVR8.h **** 			 *
 617:../../LUFA-111009/LUFA/Drivers/USB/Core/AVR8/../AVR8/Endpoint_AVR8.h **** 			 *  \ingroup Group_EndpointPrimitiveRW_AVR8
 618:../../LUFA-111009/LUFA/Drivers/USB/Core/AVR8/../AVR8/Endpoint_AVR8.h **** 			 *
 619:../../LUFA-111009/LUFA/Drivers/USB/Core/AVR8/../AVR8/Endpoint_AVR8.h **** 			 *  \param[in] Data  Data to write into the the currently selected endpoint's FIFO buffer.
 620:../../LUFA-111009/LUFA/Drivers/USB/Core/AVR8/../AVR8/Endpoint_AVR8.h **** 			 */
 621:../../LUFA-111009/LUFA/Drivers/USB/Core/AVR8/../AVR8/Endpoint_AVR8.h **** 			static inline void Endpoint_Write_8(const uint8_t Data) ATTR_ALWAYS_INLINE;
 622:../../LUFA-111009/LUFA/Drivers/USB/Core/AVR8/../AVR8/Endpoint_AVR8.h **** 			static inline void Endpoint_Write_8(const uint8_t Data)
 623:../../LUFA-111009/LUFA/Drivers/USB/Core/AVR8/../AVR8/Endpoint_AVR8.h **** 			{
 624:../../LUFA-111009/LUFA/Drivers/USB/Core/AVR8/../AVR8/Endpoint_AVR8.h **** 				UEDATX = Data;
 108               		.loc 2 624 0
 109 000e 8093 F100 		sts 241,r24
 110               	.LVL4:
 111               	.LBE96:
 112               	.LBE95:
 536:Caterina.c    **** 	{
 537:Caterina.c    **** 		Endpoint_ClearIN();
 538:Caterina.c    **** 
 539:Caterina.c    **** 		while (!(Endpoint_IsINReady()))
 540:Caterina.c    **** 		{
 541:Caterina.c    **** 			if (USB_DeviceState == DEVICE_STATE_Unattached)
 542:Caterina.c    **** 			  return;
 543:Caterina.c    **** 		}
 544:Caterina.c    **** 	}
 545:Caterina.c    **** 
 546:Caterina.c    **** 	/* Write the next byte to the IN endpoint */
 547:Caterina.c    **** 	Endpoint_Write_8(Response);
 548:Caterina.c    **** 	
 549:Caterina.c    **** 	TX_LED_ON();
 113               		.loc 1 549 0
 114               	/* #APP */
 115               	 ;  549 "Caterina.c" 1
 116 0012 0000      		nop
 117               	 ;  0 "" 2
 550:Caterina.c    **** 	TxLEDPulse = TX_RX_LED_PULSE_PERIOD;
 118               		.loc 1 550 0
 119               	/* #NOAPP */
 120 0014 84E6      		ldi r24,lo8(100)
 121 0016 90E0      		ldi r25,0
 122               	.LVL5:
 123 0018 9093 0000 		sts TxLEDPulse+1,r25
 124 001c 8093 0000 		sts TxLEDPulse,r24
 125               	.LVL6:
 126 0020 0895      		ret
 127               	.LVL7:
 128               	.L13:
 129               	.LBB97:
 130               	.LBB98:
 516:../../LUFA-111009/LUFA/Drivers/USB/Core/AVR8/../AVR8/Endpoint_AVR8.h **** 				#else
 131               		.loc 2 516 0
 132 0022 9091 E800 		lds r25,232
 133 0026 9E77      		andi r25,lo8(126)
 134 0028 9093 E800 		sts 232,r25
 135               	.L15:
 136               	.LBE98:
 137               	.LBE97:
 138               	.LBB99:
 139               	.LBB100:
 467:../../LUFA-111009/LUFA/Drivers/USB/Core/AVR8/../AVR8/Endpoint_AVR8.h **** 			}
 140               		.loc 2 467 0
 141 002c 9091 E800 		lds r25,232
 142               	.LBE100:
 143               	.LBE99:
 539:Caterina.c    **** 		{
 144               		.loc 1 539 0
 145 0030 90FD      		sbrc r25,0
 146 0032 00C0      		rjmp .L17
 541:Caterina.c    **** 			  return;
 147               		.loc 1 541 0
 148 0034 9EB3      		in r25,0x1e
 149 0036 9111      		cpse r25,__zero_reg__
 150 0038 00C0      		rjmp .L15
 151 003a 0895      		ret
 152               		.cfi_endproc
 153               	.LFE106:
 155               		.section	.text.StartSketch,"ax",@progbits
 156               	.global	StartSketch
 158               	StartSketch:
 159               	.LFB99:
  92:Caterina.c    **** 	cli();
 160               		.loc 1 92 0
 161               		.cfi_startproc
 162               	/* prologue: function */
 163               	/* frame size = 0 */
 164               	/* stack size = 0 */
 165               	.L__stack_usage = 0
  93:Caterina.c    **** 	
 166               		.loc 1 93 0
 167               	/* #APP */
 168               	 ;  93 "Caterina.c" 1
 169 0000 F894      		cli
 170               	 ;  0 "" 2
  96:Caterina.c    **** 	TCCR1B = 0;
 171               		.loc 1 96 0
 172               	/* #NOAPP */
 173 0002 1092 6F00 		sts 111,__zero_reg__
  97:Caterina.c    **** 	// MAH 8/15/12 this clear is removed to save memory. Okay, it
 174               		.loc 1 97 0
 175 0006 1092 8100 		sts 129,__zero_reg__
 105:Caterina.c    **** 	MCUCR = 0;
 176               		.loc 1 105 0
 177 000a 81E0      		ldi r24,lo8(1)
 178 000c 85BF      		out 0x35,r24
 106:Caterina.c    **** 
 179               		.loc 1 106 0
 180 000e 15BE      		out 0x35,__zero_reg__
 108:Caterina.c    **** 	TX_LED_OFF();
 181               		.loc 1 108 0
 182 0010 7698      		cbi 0xe,6
 109:Caterina.c    **** 	RX_LED_OFF();
 183               		.loc 1 109 0
 184               	/* #APP */
 185               	 ;  109 "Caterina.c" 1
 186 0012 0000      		nop
 187               	 ;  0 "" 2
 110:Caterina.c    **** 
 188               		.loc 1 110 0
 189               	 ;  110 "Caterina.c" 1
 190 0014 0000      		nop
 191               	 ;  0 "" 2
 113:Caterina.c    **** 	
 192               		.loc 1 113 0
 193               	 ;  113 "Caterina.c" 1
 194 0016 0C94 0000 		jmp 0x0000
 195               	 ;  0 "" 2
 196               	/* #NOAPP */
 197 001a 0895      		ret
 198               		.cfi_endproc
 199               	.LFE99:
 201               		.section	.text.__vector_17,"ax",@progbits
 202               	.global	__vector_17
 204               	__vector_17:
 205               	.LFB101:
 299:Caterina.c    **** 	/* Reset counter */
 206               		.loc 1 299 0
 207               		.cfi_startproc
 208 0000 1F92      		push r1
 209               	.LCFI0:
 210               		.cfi_def_cfa_offset 3
 211               		.cfi_offset 1, -2
 212 0002 0F92      		push r0
 213               	.LCFI1:
 214               		.cfi_def_cfa_offset 4
 215               		.cfi_offset 0, -3
 216 0004 0FB6      		in r0,__SREG__
 217 0006 0F92      		push r0
 218 0008 1124      		clr __zero_reg__
 219 000a 2F93      		push r18
 220               	.LCFI2:
 221               		.cfi_def_cfa_offset 5
 222               		.cfi_offset 18, -4
 223 000c 8F93      		push r24
 224               	.LCFI3:
 225               		.cfi_def_cfa_offset 6
 226               		.cfi_offset 24, -5
 227 000e 9F93      		push r25
 228               	.LCFI4:
 229               		.cfi_def_cfa_offset 7
 230               		.cfi_offset 25, -6
 231 0010 EF93      		push r30
 232               	.LCFI5:
 233               		.cfi_def_cfa_offset 8
 234               		.cfi_offset 30, -7
 235 0012 FF93      		push r31
 236               	.LCFI6:
 237               		.cfi_def_cfa_offset 9
 238               		.cfi_offset 31, -8
 239               	/* prologue: Signal */
 240               	/* frame size = 0 */
 241               	/* stack size = 8 */
 242               	.L__stack_usage = 8
 301:Caterina.c    **** 	TCNT1L = 0;
 243               		.loc 1 301 0
 244 0014 1092 8500 		sts 133,__zero_reg__
 302:Caterina.c    **** 
 245               		.loc 1 302 0
 246 0018 1092 8400 		sts 132,__zero_reg__
 305:Caterina.c    **** 		TX_LED_OFF();
 247               		.loc 1 305 0
 248 001c 8091 0000 		lds r24,TxLEDPulse
 249 0020 9091 0000 		lds r25,TxLEDPulse+1
 250 0024 0097      		sbiw r24,0
 251 0026 01F0      		breq .L24
 305:Caterina.c    **** 		TX_LED_OFF();
 252               		.loc 1 305 0 is_stmt 0 discriminator 1
 253 0028 0197      		sbiw r24,1
 254 002a 9093 0000 		sts TxLEDPulse+1,r25
 255 002e 8093 0000 		sts TxLEDPulse,r24
 256 0032 892B      		or r24,r25
 257 0034 01F4      		brne .L24
 306:Caterina.c    **** 	if (RxLEDPulse && !(--RxLEDPulse))
 258               		.loc 1 306 0 is_stmt 1
 259               	/* #APP */
 260               	 ;  306 "Caterina.c" 1
 261 0036 0000      		nop
 262               	 ;  0 "" 2
 263               	/* #NOAPP */
 264               	.L24:
 307:Caterina.c    **** 		RX_LED_OFF();
 265               		.loc 1 307 0
 266 0038 8091 0000 		lds r24,RxLEDPulse
 267 003c 9091 0000 		lds r25,RxLEDPulse+1
 268 0040 0097      		sbiw r24,0
 269 0042 01F0      		breq .L27
 307:Caterina.c    **** 		RX_LED_OFF();
 270               		.loc 1 307 0 is_stmt 0 discriminator 1
 271 0044 0197      		sbiw r24,1
 272 0046 9093 0000 		sts RxLEDPulse+1,r25
 273 004a 8093 0000 		sts RxLEDPulse,r24
 274 004e 892B      		or r24,r25
 275 0050 01F4      		brne .L27
 308:Caterina.c    **** 		
 276               		.loc 1 308 0 is_stmt 1
 277               	/* #APP */
 278               	 ;  308 "Caterina.c" 1
 279 0052 0000      		nop
 280               	 ;  0 "" 2
 281               	/* #NOAPP */
 282               	.L27:
 310:Caterina.c    **** 	if (pgm_read_word(0) != 0xFFFF)
 283               		.loc 1 310 0
 284 0054 8091 0000 		lds r24,resetTimeout
 285 0058 9091 0000 		lds r25,resetTimeout+1
 286 005c 0196      		adiw r24,1
 287 005e 9093 0000 		sts resetTimeout+1,r25
 288 0062 8093 0000 		sts resetTimeout,r24
 289               	.LVL8:
 290               	.LBB101:
 311:Caterina.c    **** 		Timeout++;
 291               		.loc 1 311 0
 292 0066 E0E0      		ldi r30,0
 293 0068 F0E0      		ldi r31,0
 294               	/* #APP */
 295               	 ;  311 "Caterina.c" 1
 296 006a 8591      		lpm r24, Z+
 297 006c 9491      		lpm r25, Z
 298               		
 299               	 ;  0 "" 2
 300               	.LVL9:
 301               	/* #NOAPP */
 302               	.LBE101:
 303 006e 0196      		adiw r24,1
 304 0070 01F0      		breq .L22
 312:Caterina.c    **** }
 305               		.loc 1 312 0
 306 0072 8091 0000 		lds r24,Timeout
 307 0076 9091 0000 		lds r25,Timeout+1
 308               	.LVL10:
 309 007a 0196      		adiw r24,1
 310 007c 9093 0000 		sts Timeout+1,r25
 311 0080 8093 0000 		sts Timeout,r24
 312               	.L22:
 313               	/* epilogue start */
 313:Caterina.c    **** 
 314               		.loc 1 313 0
 315 0084 FF91      		pop r31
 316 0086 EF91      		pop r30
 317 0088 9F91      		pop r25
 318 008a 8F91      		pop r24
 319 008c 2F91      		pop r18
 320 008e 0F90      		pop r0
 321 0090 0FBE      		out __SREG__,r0
 322 0092 0F90      		pop r0
 323 0094 1F90      		pop r1
 324 0096 1895      		reti
 325               		.cfi_endproc
 326               	.LFE101:
 328               		.section	.text.EVENT_USB_Device_ConfigurationChanged,"ax",@progbits
 329               	.global	EVENT_USB_Device_ConfigurationChanged
 331               	EVENT_USB_Device_ConfigurationChanged:
 332               	.LFB102:
 319:Caterina.c    **** 	/* Setup CDC Notification, Rx and Tx Endpoints */
 333               		.loc 1 319 0
 334               		.cfi_startproc
 335               	/* prologue: function */
 336               	/* frame size = 0 */
 337               	/* stack size = 0 */
 338               	.L__stack_usage = 0
 339               	.LVL11:
 340               	.LBB102:
 341               	.LBB103:
 276:../../LUFA-111009/LUFA/Drivers/USB/Core/AVR8/../AVR8/Endpoint_AVR8.h **** 				                                      ((1 << ALLOC) | Banks | Endpoint_BytesToEPSizeMask(Size))
 342               		.loc 2 276 0
 343 0000 42E0      		ldi r20,lo8(2)
 344 0002 61EC      		ldi r22,lo8(-63)
 345 0004 82E0      		ldi r24,lo8(2)
 346 0006 0E94 0000 		call Endpoint_ConfigureEndpoint_Prv
 347               	.LVL12:
 348               	.LBE103:
 349               	.LBE102:
 350               	.LBB104:
 351               	.LBB105:
 352 000a 42E1      		ldi r20,lo8(18)
 353 000c 61E8      		ldi r22,lo8(-127)
 354 000e 83E0      		ldi r24,lo8(3)
 355 0010 0E94 0000 		call Endpoint_ConfigureEndpoint_Prv
 356               	.LVL13:
 357               	.LBE105:
 358               	.LBE104:
 359               	.LBB106:
 360               	.LBB107:
 361 0014 42E1      		ldi r20,lo8(18)
 362 0016 60E8      		ldi r22,lo8(-128)
 363 0018 84E0      		ldi r24,lo8(4)
 364 001a 0C94 0000 		jmp Endpoint_ConfigureEndpoint_Prv
 365               	.LVL14:
 366               	.LBE107:
 367               	.LBE106:
 368               		.cfi_endproc
 369               	.LFE102:
 371               		.section	.text.EVENT_USB_Device_ControlRequest,"ax",@progbits
 372               	.global	EVENT_USB_Device_ControlRequest
 374               	EVENT_USB_Device_ControlRequest:
 375               	.LFB103:
 339:Caterina.c    **** 	/* Ignore any requests that aren't directed to the CDC interface */
 376               		.loc 1 339 0
 377               		.cfi_startproc
 378               	/* prologue: function */
 379               	/* frame size = 0 */
 380               	/* stack size = 0 */
 381               	.L__stack_usage = 0
 341:Caterina.c    **** 	    (REQTYPE_CLASS | REQREC_INTERFACE))
 382               		.loc 1 341 0
 383 0000 8091 0000 		lds r24,USB_ControlRequest
 384 0004 982F      		mov r25,r24
 385 0006 9F77      		andi r25,lo8(127)
 386 0008 9132      		cpi r25,lo8(33)
 387 000a 01F4      		brne .L34
 348:Caterina.c    **** 	{
 388               		.loc 1 348 0
 389 000c 9091 0000 		lds r25,USB_ControlRequest+1
 390 0010 9032      		cpi r25,lo8(32)
 391 0012 01F0      		breq .L36
 392 0014 9132      		cpi r25,lo8(33)
 393 0016 01F4      		brne .L34
 351:Caterina.c    **** 			{
 394               		.loc 1 351 0
 395 0018 813A      		cpi r24,lo8(-95)
 396 001a 01F4      		brne .L34
 397               	.LBB108:
 398               	.LBB109:
 504:../../LUFA-111009/LUFA/Drivers/USB/Core/AVR8/../AVR8/Endpoint_AVR8.h **** 			}
 399               		.loc 2 504 0
 400 001c 8091 E800 		lds r24,232
 401 0020 877F      		andi r24,lo8(-9)
 402 0022 8093 E800 		sts 232,r24
 403               	.LBE109:
 404               	.LBE108:
 356:Caterina.c    **** 				Endpoint_ClearOUT();
 405               		.loc 1 356 0
 406 0026 67E0      		ldi r22,lo8(7)
 407 0028 70E0      		ldi r23,0
 408 002a 80E0      		ldi r24,lo8(LineEncoding)
 409 002c 90E0      		ldi r25,hi8(LineEncoding)
 410 002e 0E94 0000 		call Endpoint_Write_Control_Stream_LE
 411               	.LVL15:
 412               	.LBB110:
 413               	.LBB111:
 531:../../LUFA-111009/LUFA/Drivers/USB/Core/AVR8/../AVR8/Endpoint_AVR8.h **** 				#else
 414               		.loc 2 531 0
 415 0032 8091 E800 		lds r24,232
 416 0036 8B77      		andi r24,lo8(123)
 417 0038 00C0      		rjmp .L38
 418               	.L36:
 419               	.LBE111:
 420               	.LBE110:
 362:Caterina.c    **** 			{
 421               		.loc 1 362 0
 422 003a 8132      		cpi r24,lo8(33)
 423 003c 01F4      		brne .L34
 424               	.LBB112:
 425               	.LBB113:
 504:../../LUFA-111009/LUFA/Drivers/USB/Core/AVR8/../AVR8/Endpoint_AVR8.h **** 			}
 426               		.loc 2 504 0
 427 003e 8091 E800 		lds r24,232
 428 0042 877F      		andi r24,lo8(-9)
 429 0044 8093 E800 		sts 232,r24
 430               	.LBE113:
 431               	.LBE112:
 367:Caterina.c    **** 				Endpoint_ClearIN();
 432               		.loc 1 367 0
 433 0048 67E0      		ldi r22,lo8(7)
 434 004a 70E0      		ldi r23,0
 435 004c 80E0      		ldi r24,lo8(LineEncoding)
 436 004e 90E0      		ldi r25,hi8(LineEncoding)
 437 0050 0E94 0000 		call Endpoint_Read_Control_Stream_LE
 438               	.LVL16:
 439               	.LBB114:
 440               	.LBB115:
 516:../../LUFA-111009/LUFA/Drivers/USB/Core/AVR8/../AVR8/Endpoint_AVR8.h **** 				#else
 441               		.loc 2 516 0
 442 0054 8091 E800 		lds r24,232
 443 0058 8E77      		andi r24,lo8(126)
 444               	.L38:
 445 005a 8093 E800 		sts 232,r24
 446               	.L34:
 447 005e 0895      		ret
 448               	.LBE115:
 449               	.LBE114:
 450               		.cfi_endproc
 451               	.LFE103:
 453               		.section	.rodata.str1.1,"aMS",@progbits,1
 454               	.LC0:
 455 0000 4341 5445 		.string	"CATERINA"
 455      5249 4E41 
 455      00
 456               		.section	.text.CDC_Task,"ax",@progbits
 457               	.global	CDC_Task
 459               	CDC_Task:
 460               	.LFB107:
 551:Caterina.c    **** }
 552:Caterina.c    **** 
 553:Caterina.c    **** #define STK_OK              0x10
 554:Caterina.c    **** #define STK_INSYNC          0x14  // ' '
 555:Caterina.c    **** #define CRC_EOP             0x20  // 'SPACE'
 556:Caterina.c    **** #define STK_GET_SYNC        0x30  // '0'
 557:Caterina.c    **** 
 558:Caterina.c    **** #define STK_GET_PARAMETER   0x41  // 'A'
 559:Caterina.c    **** #define STK_SET_DEVICE      0x42  // 'B'
 560:Caterina.c    **** #define STK_SET_DEVICE_EXT  0x45  // 'E'
 561:Caterina.c    **** #define STK_LOAD_ADDRESS    0x55  // 'U'
 562:Caterina.c    **** #define STK_UNIVERSAL       0x56  // 'V'
 563:Caterina.c    **** #define STK_PROG_PAGE       0x64  // 'd'
 564:Caterina.c    **** #define STK_READ_PAGE       0x74  // 't'
 565:Caterina.c    **** #define STK_READ_SIGN       0x75  // 'u'
 566:Caterina.c    **** 
 567:Caterina.c    **** /** Task to read in AVR910 commands from the CDC data OUT endpoint, process them, perform the requi
 568:Caterina.c    ****  *  and send the appropriate response back to the host.
 569:Caterina.c    ****  */
 570:Caterina.c    **** void CDC_Task(void)
 571:Caterina.c    **** {
 461               		.loc 1 571 0
 462               		.cfi_startproc
 463 0000 4F92      		push r4
 464               	.LCFI7:
 465               		.cfi_def_cfa_offset 3
 466               		.cfi_offset 4, -2
 467 0002 5F92      		push r5
 468               	.LCFI8:
 469               		.cfi_def_cfa_offset 4
 470               		.cfi_offset 5, -3
 471 0004 6F92      		push r6
 472               	.LCFI9:
 473               		.cfi_def_cfa_offset 5
 474               		.cfi_offset 6, -4
 475 0006 7F92      		push r7
 476               	.LCFI10:
 477               		.cfi_def_cfa_offset 6
 478               		.cfi_offset 7, -5
 479 0008 8F92      		push r8
 480               	.LCFI11:
 481               		.cfi_def_cfa_offset 7
 482               		.cfi_offset 8, -6
 483 000a 9F92      		push r9
 484               	.LCFI12:
 485               		.cfi_def_cfa_offset 8
 486               		.cfi_offset 9, -7
 487 000c AF92      		push r10
 488               	.LCFI13:
 489               		.cfi_def_cfa_offset 9
 490               		.cfi_offset 10, -8
 491 000e BF92      		push r11
 492               	.LCFI14:
 493               		.cfi_def_cfa_offset 10
 494               		.cfi_offset 11, -9
 495 0010 CF92      		push r12
 496               	.LCFI15:
 497               		.cfi_def_cfa_offset 11
 498               		.cfi_offset 12, -10
 499 0012 DF92      		push r13
 500               	.LCFI16:
 501               		.cfi_def_cfa_offset 12
 502               		.cfi_offset 13, -11
 503 0014 EF92      		push r14
 504               	.LCFI17:
 505               		.cfi_def_cfa_offset 13
 506               		.cfi_offset 14, -12
 507 0016 FF92      		push r15
 508               	.LCFI18:
 509               		.cfi_def_cfa_offset 14
 510               		.cfi_offset 15, -13
 511 0018 0F93      		push r16
 512               	.LCFI19:
 513               		.cfi_def_cfa_offset 15
 514               		.cfi_offset 16, -14
 515 001a 1F93      		push r17
 516               	.LCFI20:
 517               		.cfi_def_cfa_offset 16
 518               		.cfi_offset 17, -15
 519 001c CF93      		push r28
 520               	.LCFI21:
 521               		.cfi_def_cfa_offset 17
 522               		.cfi_offset 28, -16
 523 001e DF93      		push r29
 524               	.LCFI22:
 525               		.cfi_def_cfa_offset 18
 526               		.cfi_offset 29, -17
 527               	/* prologue: function */
 528               	/* frame size = 0 */
 529               	/* stack size = 16 */
 530               	.L__stack_usage = 16
 531               	.LVL17:
 532               	.LBB148:
 533               	.LBB149:
 330:../../LUFA-111009/LUFA/Drivers/USB/Core/AVR8/../AVR8/Endpoint_AVR8.h **** 				#endif
 534               		.loc 2 330 0
 535 0020 84E0      		ldi r24,lo8(4)
 536 0022 8093 E900 		sts 233,r24
 537               	.LVL18:
 538               	.LBE149:
 539               	.LBE148:
 540               	.LBB150:
 541               	.LBB151:
 479:../../LUFA-111009/LUFA/Drivers/USB/Core/AVR8/../AVR8/Endpoint_AVR8.h **** 			}
 542               		.loc 2 479 0
 543 0026 8091 E800 		lds r24,232
 544               	.LBE151:
 545               	.LBE150:
 572:Caterina.c    **** 	/* Select the OUT endpoint */
 573:Caterina.c    **** 	Endpoint_SelectEndpoint(CDC_RX_EPNUM);
 574:Caterina.c    **** 
 575:Caterina.c    **** 	/* Check if endpoint has a command in it sent from the host */
 576:Caterina.c    **** 	if (!(Endpoint_IsOUTReceived()))
 546               		.loc 1 576 0
 547 002a 82FF      		sbrs r24,2
 548 002c 00C0      		rjmp .L39
 577:Caterina.c    **** 	  return;
 578:Caterina.c    **** 	  
 579:Caterina.c    **** 	RX_LED_ON();
 549               		.loc 1 579 0
 550               	/* #APP */
 551               	 ;  579 "Caterina.c" 1
 552 002e 0000      		nop
 553               	 ;  0 "" 2
 580:Caterina.c    **** 	RxLEDPulse = TX_RX_LED_PULSE_PERIOD;
 554               		.loc 1 580 0
 555               	/* #NOAPP */
 556 0030 84E6      		ldi r24,lo8(100)
 557 0032 90E0      		ldi r25,0
 558 0034 9093 0000 		sts RxLEDPulse+1,r25
 559 0038 8093 0000 		sts RxLEDPulse,r24
 581:Caterina.c    **** 
 582:Caterina.c    **** 	/* Read in the bootloader command (first byte sent from host) */
 583:Caterina.c    **** 	uint8_t Command = FetchNextCommandByte();
 560               		.loc 1 583 0
 561 003c 0E94 0000 		call FetchNextCommandByte
 562               	.LVL19:
 563 0040 C82F      		mov r28,r24
 564               	.LVL20:
 584:Caterina.c    **** 
 585:Caterina.c    **** 	if (Command == 'E')
 565               		.loc 1 585 0
 566 0042 8534      		cpi r24,lo8(69)
 567 0044 01F4      		brne .L42
 586:Caterina.c    **** 	{
 587:Caterina.c    **** 		/* We nearly run out the bootloader timeout clock, 
 588:Caterina.c    **** 		* leaving just a few hundred milliseconds so the 
 589:Caterina.c    **** 		* bootloder has time to respond and service any 
 590:Caterina.c    **** 		* subsequent requests */
 591:Caterina.c    **** 		Timeout = TIMEOUT_PERIOD - 500;
 568               		.loc 1 591 0
 569 0046 8CEA      		ldi r24,lo8(-84)
 570 0048 9DE0      		ldi r25,lo8(13)
 571               	.LVL21:
 572 004a 9093 0000 		sts Timeout+1,r25
 573 004e 8093 0000 		sts Timeout,r24
 574               	.L43:
 592:Caterina.c    **** 	
 593:Caterina.c    **** 		/* Re-enable RWW section - must be done here in case 
 594:Caterina.c    **** 		 * user has disabled verification on upload.  */
 595:Caterina.c    **** 		boot_rww_enable_safe();		
 575               		.loc 1 595 0 discriminator 1
 576 0052 07B6      		in __tmp_reg__,0x37
 577 0054 00FC      		sbrc __tmp_reg__,0
 578 0056 00C0      		rjmp .L43
 579               	.L44:
 580               		.loc 1 595 0 is_stmt 0 discriminator 3
 581 0058 F999      		sbic 0x1f,1
 582 005a 00C0      		rjmp .L44
 583               		.loc 1 595 0 discriminator 4
 584 005c 81E1      		ldi r24,lo8(17)
 585               	/* #APP */
 586               	 ;  595 "Caterina.c" 1
 587 005e 8093 5700 		sts 87, r24
 588 0062 E895      		spm
 589               		
 590               	 ;  0 "" 2
 591               	/* #NOAPP */
 592 0064 00C0      		rjmp .L128
 593               	.LVL22:
 594               	.L42:
 596:Caterina.c    **** 
 597:Caterina.c    **** 		// Send confirmation byte back to the host 
 598:Caterina.c    **** 		WriteNextResponseByte('\r');
 599:Caterina.c    **** 	}
 600:Caterina.c    **** 	else if (Command == 'T')
 595               		.loc 1 600 0 is_stmt 1
 596 0066 8435      		cpi r24,lo8(84)
 597 0068 01F4      		brne .L46
 601:Caterina.c    **** 	{
 602:Caterina.c    **** 		FetchNextCommandByte();
 598               		.loc 1 602 0
 599 006a 0E94 0000 		call FetchNextCommandByte
 600               	.LVL23:
 601               	.L128:
 603:Caterina.c    **** 
 604:Caterina.c    **** 		// Send confirmation byte back to the host 
 605:Caterina.c    **** 		WriteNextResponseByte('\r');
 602               		.loc 1 605 0
 603 006e 8DE0      		ldi r24,lo8(13)
 604               	.L129:
 605 0070 0E94 0000 		call WriteNextResponseByte
 606               	.LVL24:
 607 0074 00C0      		rjmp .L45
 608               	.LVL25:
 609               	.L46:
 606:Caterina.c    **** 	}
 607:Caterina.c    **** 	else if ((Command == 'L') || (Command == 'P'))
 610               		.loc 1 607 0
 611 0076 8C34      		cpi r24,lo8(76)
 612 0078 01F0      		breq .L128
 613               		.loc 1 607 0 is_stmt 0 discriminator 1
 614 007a 8035      		cpi r24,lo8(80)
 615 007c 01F0      		breq .L128
 608:Caterina.c    **** 	{
 609:Caterina.c    **** 		// Send confirmation byte back to the host 
 610:Caterina.c    **** 		WriteNextResponseByte('\r');
 611:Caterina.c    **** 	}
 612:Caterina.c    **** 	else if (Command == 't')
 616               		.loc 1 612 0 is_stmt 1
 617 007e 8437      		cpi r24,lo8(116)
 618 0080 01F4      		brne .L49
 613:Caterina.c    **** 	{
 614:Caterina.c    **** 		// Return ATMEGA128 part code - this is only to allow AVRProg to use the bootloader 
 615:Caterina.c    **** 		WriteNextResponseByte(0x44);
 619               		.loc 1 615 0
 620 0082 84E4      		ldi r24,lo8(68)
 621               	.LVL26:
 622 0084 0E94 0000 		call WriteNextResponseByte
 623               	.LVL27:
 616:Caterina.c    **** 		WriteNextResponseByte(0x00);
 624               		.loc 1 616 0
 625 0088 80E0      		ldi r24,0
 626 008a 00C0      		rjmp .L129
 627               	.LVL28:
 628               	.L49:
 617:Caterina.c    **** 	}
 618:Caterina.c    **** 	else if (Command == 'a')
 629               		.loc 1 618 0
 630 008c 8136      		cpi r24,lo8(97)
 631 008e 01F4      		brne .L50
 619:Caterina.c    **** 	{
 620:Caterina.c    **** 		// Indicate auto-address increment is supported 
 621:Caterina.c    **** 		WriteNextResponseByte('Y');
 632               		.loc 1 621 0
 633 0090 89E5      		ldi r24,lo8(89)
 634               	.LVL29:
 635 0092 00C0      		rjmp .L129
 636               	.LVL30:
 637               	.L50:
 622:Caterina.c    **** 	}
 623:Caterina.c    **** 	else if (Command == 'A')
 638               		.loc 1 623 0
 639 0094 8134      		cpi r24,lo8(65)
 640 0096 01F4      		brne .L51
 624:Caterina.c    **** 	{
 625:Caterina.c    **** 		// Set the current address to that given by the host 
 626:Caterina.c    **** 		CurrAddress   = (FetchNextCommandByte() << 9);
 641               		.loc 1 626 0
 642 0098 0E94 0000 		call FetchNextCommandByte
 643               	.LVL31:
 644 009c C82F      		mov r28,r24
 645               	.LVL32:
 627:Caterina.c    **** 		CurrAddress  |= (FetchNextCommandByte() << 1);
 646               		.loc 1 627 0
 647 009e 0E94 0000 		call FetchNextCommandByte
 648               	.LVL33:
 649 00a2 2C2F      		mov r18,r28
 650 00a4 30E0      		ldi r19,0
 651 00a6 322F      		mov r19,r18
 652 00a8 2227      		clr r18
 653 00aa 330F      		lsl r19
 654 00ac 90E0      		ldi r25,0
 655 00ae 880F      		lsl r24
 656 00b0 991F      		rol r25
 657 00b2 822B      		or r24,r18
 658 00b4 932B      		or r25,r19
 659 00b6 092E      		mov __tmp_reg__,r25
 660 00b8 000C      		lsl r0
 661 00ba AA0B      		sbc r26,r26
 662 00bc BB0B      		sbc r27,r27
 663 00be 00C0      		rjmp .L130
 664               	.LVL34:
 665               	.L51:
 628:Caterina.c    **** 
 629:Caterina.c    **** 		// Send confirmation byte back to the host 
 630:Caterina.c    **** 		WriteNextResponseByte('\r');
 631:Caterina.c    **** 	}
 632:Caterina.c    **** 	else if (Command == 'p')
 666               		.loc 1 632 0
 667 00c0 8037      		cpi r24,lo8(112)
 668 00c2 01F4      		brne .L52
 633:Caterina.c    **** 	{
 634:Caterina.c    **** 		// Indicate serial programmer back to the host 
 635:Caterina.c    **** 		WriteNextResponseByte('S');
 669               		.loc 1 635 0
 670 00c4 83E5      		ldi r24,lo8(83)
 671               	.LVL35:
 672 00c6 00C0      		rjmp .L129
 673               	.LVL36:
 674               	.L52:
 636:Caterina.c    **** 	}
 637:Caterina.c    **** 	else if (Command == 'S')
 675               		.loc 1 637 0
 676 00c8 8335      		cpi r24,lo8(83)
 677 00ca 01F4      		brne .L53
 678 00cc C0E0      		ldi r28,lo8(.LC0)
 679 00ce D0E0      		ldi r29,hi8(.LC0)
 680               	.LVL37:
 681               	.L54:
 682               	.LBB152:
 638:Caterina.c    **** 	{
 639:Caterina.c    **** 		// Write the 7-byte software identifier to the endpoint 
 640:Caterina.c    **** 		for (uint8_t CurrByte = 0; CurrByte < 7; CurrByte++)
 641:Caterina.c    **** 		  WriteNextResponseByte(SOFTWARE_IDENTIFIER[CurrByte]);
 683               		.loc 1 641 0 discriminator 3
 684 00d0 8991      		ld r24,Y+
 685               	.LVL38:
 686 00d2 0E94 0000 		call WriteNextResponseByte
 687               	.LVL39:
 640:Caterina.c    **** 		  WriteNextResponseByte(SOFTWARE_IDENTIFIER[CurrByte]);
 688               		.loc 1 640 0 discriminator 3
 689 00d6 20E0      		ldi r18,hi8(.LC0+7)
 690 00d8 C030      		cpi r28,lo8(.LC0+7)
 691 00da D207      		cpc r29,r18
 692 00dc 01F4      		brne .L54
 693 00de 00C0      		rjmp .L45
 694               	.LVL40:
 695               	.L53:
 696               	.LBE152:
 642:Caterina.c    **** 	}
 643:Caterina.c    **** 	else if (Command == 'V')
 697               		.loc 1 643 0
 698 00e0 8635      		cpi r24,lo8(86)
 699 00e2 01F4      		brne .L55
 644:Caterina.c    **** 	{
 645:Caterina.c    **** 		WriteNextResponseByte('0' + BOOTLOADER_VERSION_MAJOR);
 700               		.loc 1 645 0
 701 00e4 81E3      		ldi r24,lo8(49)
 702               	.LVL41:
 703 00e6 0E94 0000 		call WriteNextResponseByte
 704               	.LVL42:
 646:Caterina.c    **** 		WriteNextResponseByte('0' + BOOTLOADER_VERSION_MINOR);
 705               		.loc 1 646 0
 706 00ea 80E3      		ldi r24,lo8(48)
 707 00ec 00C0      		rjmp .L129
 708               	.LVL43:
 709               	.L55:
 647:Caterina.c    **** 	}
 648:Caterina.c    **** 	else if (Command == 's')
 710               		.loc 1 648 0
 711 00ee 8337      		cpi r24,lo8(115)
 712 00f0 01F4      		brne .L56
 649:Caterina.c    **** 	{
 650:Caterina.c    **** 		WriteNextResponseByte(AVR_SIGNATURE_3);
 713               		.loc 1 650 0
 714 00f2 87E8      		ldi r24,lo8(-121)
 715               	.LVL44:
 716 00f4 0E94 0000 		call WriteNextResponseByte
 717               	.LVL45:
 651:Caterina.c    **** 		WriteNextResponseByte(AVR_SIGNATURE_2);
 718               		.loc 1 651 0
 719 00f8 85E9      		ldi r24,lo8(-107)
 720 00fa 0E94 0000 		call WriteNextResponseByte
 721               	.LVL46:
 652:Caterina.c    **** 		WriteNextResponseByte(AVR_SIGNATURE_1);
 722               		.loc 1 652 0
 723 00fe 8EE1      		ldi r24,lo8(30)
 724 0100 00C0      		rjmp .L129
 725               	.LVL47:
 726               	.L56:
 653:Caterina.c    **** 	}
 654:Caterina.c    **** 	else if (Command == 'e')
 727               		.loc 1 654 0
 728 0102 8536      		cpi r24,lo8(101)
 729 0104 01F4      		brne .L57
 730 0106 E0E0      		ldi r30,0
 731 0108 F0E0      		ldi r31,0
 732               	.LBB153:
 655:Caterina.c    **** 	{
 656:Caterina.c    **** 		// Clear the application section of flash 
 657:Caterina.c    **** 		for (uint32_t CurrFlashAddress = 0; CurrFlashAddress < BOOT_START_ADDR; CurrFlashAddress += SPM_P
 658:Caterina.c    **** 		{
 659:Caterina.c    **** 			boot_page_erase(CurrFlashAddress);
 733               		.loc 1 659 0
 734 010a 83E0      		ldi r24,lo8(3)
 735               	.LVL48:
 660:Caterina.c    **** 			boot_spm_busy_wait();
 661:Caterina.c    **** 			boot_page_write(CurrFlashAddress);
 736               		.loc 1 661 0
 737 010c 95E0      		ldi r25,lo8(5)
 738               	.L60:
 659:Caterina.c    **** 			boot_spm_busy_wait();
 739               		.loc 1 659 0
 740               	/* #APP */
 741               	 ;  659 "Caterina.c" 1
 742 010e 8093 5700 		sts 87, r24
 743 0112 E895      		spm
 744               		
 745               	 ;  0 "" 2
 746               	/* #NOAPP */
 747               	.L58:
 660:Caterina.c    **** 			boot_spm_busy_wait();
 748               		.loc 1 660 0 discriminator 1
 749 0114 07B6      		in __tmp_reg__,0x37
 750 0116 00FC      		sbrc __tmp_reg__,0
 751 0118 00C0      		rjmp .L58
 752               		.loc 1 661 0
 753               	/* #APP */
 754               	 ;  661 "Caterina.c" 1
 755 011a 9093 5700 		sts 87, r25
 756 011e E895      		spm
 757               		
 758               	 ;  0 "" 2
 759               	/* #NOAPP */
 760               	.L59:
 662:Caterina.c    **** 			boot_spm_busy_wait();
 761               		.loc 1 662 0 discriminator 1
 762 0120 07B6      		in __tmp_reg__,0x37
 763 0122 00FC      		sbrc __tmp_reg__,0
 764 0124 00C0      		rjmp .L59
 765               	.LVL49:
 766 0126 E058      		subi r30,-128
 767 0128 FF4F      		sbci r31,-1
 657:Caterina.c    **** 		{
 768               		.loc 1 657 0 discriminator 2
 769 012a E115      		cp r30,__zero_reg__
 770 012c 40E7      		ldi r20,112
 771 012e F407      		cpc r31,r20
 772 0130 01F4      		brne .L60
 773 0132 00C0      		rjmp .L128
 774               	.LVL50:
 775               	.L57:
 776               	.LBE153:
 663:Caterina.c    **** 		}
 664:Caterina.c    **** 
 665:Caterina.c    **** 		// Send confirmation byte back to the host 
 666:Caterina.c    **** 		WriteNextResponseByte('\r');
 667:Caterina.c    **** 	}
 668:Caterina.c    **** 	#if !defined(NO_LOCK_BYTE_WRITE_SUPPORT)
 669:Caterina.c    **** 	else if (Command == 'l')
 670:Caterina.c    **** 	{
 671:Caterina.c    **** 		// Set the lock bits to those given by the host 
 672:Caterina.c    **** 		boot_lock_bits_set(FetchNextCommandByte());
 673:Caterina.c    **** 
 674:Caterina.c    **** 		// Send confirmation byte back to the host 
 675:Caterina.c    **** 		WriteNextResponseByte('\r');
 676:Caterina.c    **** 	}
 677:Caterina.c    **** 	#endif
 678:Caterina.c    **** 	else if (Command == 'r')
 777               		.loc 1 678 0
 778 0134 8237      		cpi r24,lo8(114)
 779 0136 01F4      		brne .L61
 780               	.LBB154:
 679:Caterina.c    **** 	{
 680:Caterina.c    **** 		WriteNextResponseByte(boot_lock_fuse_bits_get(GET_LOCK_BITS));
 781               		.loc 1 680 0
 782 0138 E1E0      		ldi r30,lo8(1)
 783 013a F0E0      		ldi r31,0
 784 013c 00C0      		rjmp .L131
 785               	.L61:
 786               	.LBE154:
 681:Caterina.c    **** 	}
 682:Caterina.c    **** 	else if (Command == 'F')
 787               		.loc 1 682 0
 788 013e 8634      		cpi r24,lo8(70)
 789 0140 01F4      		brne .L62
 790               	.LBB155:
 683:Caterina.c    **** 	{
 684:Caterina.c    **** 		WriteNextResponseByte(boot_lock_fuse_bits_get(GET_LOW_FUSE_BITS));
 791               		.loc 1 684 0
 792 0142 E0E0      		ldi r30,0
 793 0144 F0E0      		ldi r31,0
 794 0146 00C0      		rjmp .L131
 795               	.L62:
 796               	.LBE155:
 685:Caterina.c    **** 	}
 686:Caterina.c    **** 	else if (Command == 'N')
 797               		.loc 1 686 0
 798 0148 8E34      		cpi r24,lo8(78)
 799 014a 01F4      		brne .L63
 800               	.LBB156:
 687:Caterina.c    **** 	{
 688:Caterina.c    **** 		WriteNextResponseByte(boot_lock_fuse_bits_get(GET_HIGH_FUSE_BITS));
 801               		.loc 1 688 0
 802 014c E3E0      		ldi r30,lo8(3)
 803 014e F0E0      		ldi r31,0
 804 0150 00C0      		rjmp .L131
 805               	.L63:
 806               	.LBE156:
 689:Caterina.c    **** 	}
 690:Caterina.c    **** 	else if (Command == 'Q')
 807               		.loc 1 690 0
 808 0152 8135      		cpi r24,lo8(81)
 809 0154 01F4      		brne .L64
 810               	.LBB157:
 691:Caterina.c    **** 	{
 692:Caterina.c    **** 		WriteNextResponseByte(boot_lock_fuse_bits_get(GET_EXTENDED_FUSE_BITS));
 811               		.loc 1 692 0
 812 0156 E2E0      		ldi r30,lo8(2)
 813 0158 F0E0      		ldi r31,0
 814               	.L131:
 815 015a 89E0      		ldi r24,lo8(9)
 816               	.LVL51:
 817               	/* #APP */
 818               	 ;  692 "Caterina.c" 1
 819 015c 8093 5700 		sts 87, r24
 820 0160 8491      		lpm r24, Z
 821               		
 822               	 ;  0 "" 2
 823               	.LVL52:
 824               	/* #NOAPP */
 825 0162 00C0      		rjmp .L129
 826               	.LVL53:
 827               	.L64:
 828               	.LBE157:
 693:Caterina.c    **** 	}
 694:Caterina.c    **** 	#if !defined(NO_BLOCK_SUPPORT)
 695:Caterina.c    **** 	else if (Command == 'b')
 829               		.loc 1 695 0
 830 0164 8236      		cpi r24,lo8(98)
 831 0166 01F4      		brne .L65
 696:Caterina.c    **** 	{
 697:Caterina.c    **** 		WriteNextResponseByte('Y');
 832               		.loc 1 697 0
 833 0168 89E5      		ldi r24,lo8(89)
 834               	.LVL54:
 835 016a 0E94 0000 		call WriteNextResponseByte
 836               	.LVL55:
 698:Caterina.c    **** 
 699:Caterina.c    **** 		// Send block size to the host 
 700:Caterina.c    **** 		WriteNextResponseByte(SPM_PAGESIZE >> 8);
 837               		.loc 1 700 0
 838 016e 80E0      		ldi r24,0
 839 0170 0E94 0000 		call WriteNextResponseByte
 840               	.LVL56:
 701:Caterina.c    **** 		WriteNextResponseByte(SPM_PAGESIZE & 0xFF);
 841               		.loc 1 701 0
 842 0174 80E8      		ldi r24,lo8(-128)
 843 0176 00C0      		rjmp .L129
 844               	.LVL57:
 845               	.L65:
 702:Caterina.c    **** 	}
 703:Caterina.c    **** 	else if ((Command == 'B') || (Command == 'g'))
 846               		.loc 1 703 0
 847 0178 8234      		cpi r24,lo8(66)
 848 017a 01F0      		breq .L66
 849               		.loc 1 703 0 is_stmt 0 discriminator 1
 850 017c 8736      		cpi r24,lo8(103)
 851 017e 01F0      		breq .+2
 852 0180 00C0      		rjmp .L67
 853               	.L66:
 704:Caterina.c    **** 	{
 705:Caterina.c    **** 		// Keep resetting the timeout counter if we're receiving self-programming instructions
 706:Caterina.c    **** 		Timeout = 0;
 854               		.loc 1 706 0 is_stmt 1
 855 0182 1092 0000 		sts Timeout+1,__zero_reg__
 856 0186 1092 0000 		sts Timeout,__zero_reg__
 857               	.LVL58:
 858               	.LBB158:
 859               	.LBB159:
 389:Caterina.c    **** 	BlockSize |=  FetchNextCommandByte();
 860               		.loc 1 389 0
 861 018a 0E94 0000 		call FetchNextCommandByte
 862               	.LVL59:
 863 018e 082F      		mov r16,r24
 864               	.LVL60:
 390:Caterina.c    **** 
 865               		.loc 1 390 0
 866 0190 0E94 0000 		call FetchNextCommandByte
 867               	.LVL61:
 868 0194 D82F      		mov r29,r24
 869               	.LVL62:
 392:Caterina.c    **** 
 870               		.loc 1 392 0
 871 0196 0E94 0000 		call FetchNextCommandByte
 872               	.LVL63:
 873 019a 182F      		mov r17,r24
 874               	.LVL64:
 394:Caterina.c    **** 	{
 875               		.loc 1 394 0
 876 019c 8BEB      		ldi r24,lo8(-69)
 877 019e 810F      		add r24,r17
 878 01a0 8230      		cpi r24,lo8(2)
 879 01a2 00F0      		brlo .L68
 880               	.LVL65:
 881               	.L93:
 397:Caterina.c    **** 
 882               		.loc 1 397 0
 883 01a4 8FE3      		ldi r24,lo8(63)
 884 01a6 00C0      		rjmp .L129
 885               	.LVL66:
 886               	.L68:
 389:Caterina.c    **** 	BlockSize |=  FetchNextCommandByte();
 887               		.loc 1 389 0
 888 01a8 8D2F      		mov r24,r29
 889 01aa 90E0      		ldi r25,0
 390:Caterina.c    **** 
 890               		.loc 1 390 0
 891 01ac 902B      		or r25,r16
 404:Caterina.c    **** 
 892               		.loc 1 404 0
 893 01ae 1092 6F00 		sts 111,__zero_reg__
 407:Caterina.c    **** 	{		
 894               		.loc 1 407 0
 895 01b2 C736      		cpi r28,lo8(103)
 896 01b4 01F0      		breq .+2
 897 01b6 00C0      		rjmp .L69
 898               	.LVL67:
 410:Caterina.c    **** 
 899               		.loc 1 410 0
 900 01b8 21E1      		ldi r18,lo8(17)
 901               	/* #APP */
 902               	 ;  410 "Caterina.c" 1
 903 01ba 2093 5700 		sts 87, r18
 904 01be E895      		spm
 905               		
 906               	 ;  0 "" 2
 907               	/* #NOAPP */
 908 01c0 EC01      		movw r28,r24
 909               	.LVL68:
 386:Caterina.c    **** 	uint8_t  LowByte  = 0;
 910               		.loc 1 386 0
 911 01c2 B12C      		mov r11,__zero_reg__
 427:Caterina.c    **** 			}
 912               		.loc 1 427 0
 913 01c4 01E0      		ldi r16,lo8(1)
 914               	.LVL69:
 915               	.L70:
 412:Caterina.c    **** 		{
 916               		.loc 1 412 0
 917 01c6 2097      		sbiw r28,0
 918 01c8 01F4      		brne .+2
 919 01ca 00C0      		rjmp .L75
 920 01cc C090 0000 		lds r12,CurrAddress
 921 01d0 D090 0000 		lds r13,CurrAddress+1
 922 01d4 E090 0000 		lds r14,CurrAddress+2
 923 01d8 F090 0000 		lds r15,CurrAddress+3
 414:Caterina.c    **** 			{
 924               		.loc 1 414 0
 925 01dc 1634      		cpi r17,lo8(70)
 926 01de 01F4      		brne .L71
 927               	.LVL70:
 928               	.LBB160:
 420:Caterina.c    **** 				#endif
 929               		.loc 1 420 0
 930 01e0 EB2D      		mov r30,r11
 931 01e2 F0E0      		ldi r31,0
 932 01e4 EC29      		or r30,r12
 933 01e6 FD29      		or r31,r13
 934               	/* #APP */
 935               	 ;  420 "Caterina.c" 1
 936 01e8 8491      		lpm r24, Z
 937               		
 938               	 ;  0 "" 2
 939               	.LVL71:
 940               	/* #NOAPP */
 941               	.LBE160:
 942 01ea 0E94 0000 		call WriteNextResponseByte
 943               	.LVL72:
 424:Caterina.c    **** 				  CurrAddress += 2;
 944               		.loc 1 424 0
 945 01ee BB20      		tst r11
 946 01f0 01F0      		breq .L72
 425:Caterina.c    **** 
 947               		.loc 1 425 0
 948 01f2 52E0      		ldi r21,2
 949 01f4 C50E      		add r12,r21
 950 01f6 D11C      		adc r13,__zero_reg__
 951 01f8 E11C      		adc r14,__zero_reg__
 952 01fa F11C      		adc r15,__zero_reg__
 953               	.LVL73:
 954 01fc C092 0000 		sts CurrAddress,r12
 955 0200 D092 0000 		sts CurrAddress+1,r13
 956 0204 E092 0000 		sts CurrAddress+2,r14
 957 0208 F092 0000 		sts CurrAddress+3,r15
 958               	.LVL74:
 959               	.L72:
 427:Caterina.c    **** 			}
 960               		.loc 1 427 0
 961 020c B026      		eor r11,r16
 962               	.LVL75:
 963 020e 00C0      		rjmp .L73
 964               	.L71:
 432:Caterina.c    **** 
 965               		.loc 1 432 0
 966 0210 D701      		movw r26,r14
 967 0212 C601      		movw r24,r12
 968 0214 B695      		lsr r27
 969 0216 A795      		ror r26
 970 0218 9795      		ror r25
 971 021a 8795      		ror r24
 972 021c 0E94 0000 		call eeprom_read_byte
 973               	.LVL76:
 974 0220 0E94 0000 		call WriteNextResponseByte
 975               	.LVL77:
 435:Caterina.c    **** 			}
 976               		.loc 1 435 0
 977 0224 82E0      		ldi r24,2
 978 0226 C80E      		add r12,r24
 979 0228 D11C      		adc r13,__zero_reg__
 980 022a E11C      		adc r14,__zero_reg__
 981 022c F11C      		adc r15,__zero_reg__
 982 022e C092 0000 		sts CurrAddress,r12
 983 0232 D092 0000 		sts CurrAddress+1,r13
 984 0236 E092 0000 		sts CurrAddress+2,r14
 985 023a F092 0000 		sts CurrAddress+3,r15
 986               	.L73:
 987 023e 2197      		sbiw r28,1
 988               	.LVL78:
 989 0240 00C0      		rjmp .L70
 990               	.LVL79:
 991               	.L69:
 992               	.LBB161:
 441:Caterina.c    **** 
 993               		.loc 1 441 0
 994 0242 8090 0000 		lds r8,CurrAddress
 995 0246 9090 0000 		lds r9,CurrAddress+1
 996 024a A090 0000 		lds r10,CurrAddress+2
 997 024e B090 0000 		lds r11,CurrAddress+3
 443:Caterina.c    **** 		{
 998               		.loc 1 443 0
 999 0252 1634      		cpi r17,lo8(70)
 1000 0254 01F4      		brne .L101
 445:Caterina.c    **** 			boot_spm_busy_wait();
 1001               		.loc 1 445 0
 1002 0256 23E0      		ldi r18,lo8(3)
 1003 0258 F401      		movw r30,r8
 1004               	/* #APP */
 1005               	 ;  445 "Caterina.c" 1
 1006 025a 2093 5700 		sts 87, r18
 1007 025e E895      		spm
 1008               		
 1009               	 ;  0 "" 2
 1010               	/* #NOAPP */
 1011               	.L77:
 446:Caterina.c    **** 		}
 1012               		.loc 1 446 0
 1013 0260 07B6      		in __tmp_reg__,0x37
 1014 0262 00FC      		sbrc __tmp_reg__,0
 1015 0264 00C0      		rjmp .L77
 1016               	.L101:
 443:Caterina.c    **** 		{
 1017               		.loc 1 443 0
 1018 0266 E12C      		mov r14,__zero_reg__
 1019 0268 F12C      		mov r15,__zero_reg__
 1020 026a EC01      		movw r28,r24
 1021               	.LVL80:
 467:Caterina.c    **** 			}
 1022               		.loc 1 467 0
 1023 026c 01E0      		ldi r16,lo8(1)
 1024               	.LVL81:
 1025               	.L78:
 449:Caterina.c    **** 		{
 1026               		.loc 1 449 0
 1027 026e 2097      		sbiw r28,0
 1028 0270 01F4      		brne .+2
 1029 0272 00C0      		rjmp .L132
 451:Caterina.c    **** 			{
 1030               		.loc 1 451 0
 1031 0274 1634      		cpi r17,lo8(70)
 1032 0276 01F4      		brne .L79
 454:Caterina.c    **** 				{
 1033               		.loc 1 454 0
 1034 0278 FF20      		tst r15
 1035 027a 01F0      		breq .L80
 457:Caterina.c    **** 
 1036               		.loc 1 457 0
 1037 027c 4090 0000 		lds r4,CurrAddress
 1038 0280 5090 0000 		lds r5,CurrAddress+1
 1039 0284 6090 0000 		lds r6,CurrAddress+2
 1040 0288 7090 0000 		lds r7,CurrAddress+3
 1041 028c 0E94 0000 		call FetchNextCommandByte
 1042               	.LVL82:
 1043 0290 2E2D      		mov r18,r14
 1044 0292 30E0      		ldi r19,0
 1045 0294 A901      		movw r20,r18
 1046 0296 582B      		or r21,r24
 1047 0298 F201      		movw r30,r4
 1048               	/* #APP */
 1049               	 ;  457 "Caterina.c" 1
 1050 029a 0A01      		movw  r0, r20
 1051 029c 0093 5700 		sts 87, r16
 1052 02a0 E895      		spm
 1053 02a2 1124      		clr  r1
 1054               		
 1055               	 ;  0 "" 2
 460:Caterina.c    **** 				}
 1056               		.loc 1 460 0
 1057               	/* #NOAPP */
 1058 02a4 F2E0      		ldi r31,2
 1059 02a6 4F0E      		add r4,r31
 1060 02a8 511C      		adc r5,__zero_reg__
 1061 02aa 611C      		adc r6,__zero_reg__
 1062 02ac 711C      		adc r7,__zero_reg__
 1063 02ae 4092 0000 		sts CurrAddress,r4
 1064 02b2 5092 0000 		sts CurrAddress+1,r5
 1065 02b6 6092 0000 		sts CurrAddress+2,r6
 1066 02ba 7092 0000 		sts CurrAddress+3,r7
 1067 02be 00C0      		rjmp .L81
 1068               	.L80:
 464:Caterina.c    **** 				}
 1069               		.loc 1 464 0
 1070 02c0 0E94 0000 		call FetchNextCommandByte
 1071               	.LVL83:
 1072 02c4 E82E      		mov r14,r24
 1073               	.LVL84:
 1074               	.L81:
 467:Caterina.c    **** 			}
 1075               		.loc 1 467 0
 1076 02c6 F026      		eor r15,r16
 1077               	.LVL85:
 1078 02c8 00C0      		rjmp .L82
 1079               	.L79:
 472:Caterina.c    **** 
 1080               		.loc 1 472 0
 1081 02ca 0E94 0000 		call FetchNextCommandByte
 1082               	.LVL86:
 1083 02ce 682F      		mov r22,r24
 1084 02d0 8091 0000 		lds r24,CurrAddress
 1085 02d4 9091 0000 		lds r25,CurrAddress+1
 1086 02d8 A091 0000 		lds r26,CurrAddress+2
 1087 02dc B091 0000 		lds r27,CurrAddress+3
 1088 02e0 B695      		lsr r27
 1089 02e2 A795      		ror r26
 1090 02e4 9795      		ror r25
 1091 02e6 8795      		ror r24
 1092 02e8 0E94 0000 		call eeprom_write_byte
 1093               	.LVL87:
 475:Caterina.c    **** 			}
 1094               		.loc 1 475 0
 1095 02ec 8091 0000 		lds r24,CurrAddress
 1096 02f0 9091 0000 		lds r25,CurrAddress+1
 1097 02f4 A091 0000 		lds r26,CurrAddress+2
 1098 02f8 B091 0000 		lds r27,CurrAddress+3
 1099 02fc 0296      		adiw r24,2
 1100 02fe A11D      		adc r26,__zero_reg__
 1101 0300 B11D      		adc r27,__zero_reg__
 1102 0302 8093 0000 		sts CurrAddress,r24
 1103 0306 9093 0000 		sts CurrAddress+1,r25
 1104 030a A093 0000 		sts CurrAddress+2,r26
 1105 030e B093 0000 		sts CurrAddress+3,r27
 1106               	.L82:
 1107 0312 2197      		sbiw r28,1
 1108               	.LVL88:
 1109 0314 00C0      		rjmp .L78
 1110               	.LVL89:
 1111               	.L132:
 480:Caterina.c    **** 		{
 1112               		.loc 1 480 0
 1113 0316 1634      		cpi r17,lo8(70)
 1114 0318 01F4      		brne .L84
 483:Caterina.c    **** 
 1115               		.loc 1 483 0
 1116 031a 85E0      		ldi r24,lo8(5)
 1117 031c F401      		movw r30,r8
 1118               	/* #APP */
 1119               	 ;  483 "Caterina.c" 1
 1120 031e 8093 5700 		sts 87, r24
 1121 0322 E895      		spm
 1122               		
 1123               	 ;  0 "" 2
 1124               	/* #NOAPP */
 1125               	.L85:
 486:Caterina.c    **** 		}
 1126               		.loc 1 486 0
 1127 0324 07B6      		in __tmp_reg__,0x37
 1128 0326 00FC      		sbrc __tmp_reg__,0
 1129 0328 00C0      		rjmp .L85
 1130               	.L84:
 490:Caterina.c    **** 	}
 1131               		.loc 1 490 0
 1132 032a 8DE0      		ldi r24,lo8(13)
 1133 032c 0E94 0000 		call WriteNextResponseByte
 1134               	.LVL90:
 1135               	.L75:
 1136               	.LBE161:
 494:Caterina.c    **** }
 1137               		.loc 1 494 0
 1138 0330 82E0      		ldi r24,lo8(2)
 1139 0332 8093 6F00 		sts 111,r24
 1140 0336 00C0      		rjmp .L45
 1141               	.LVL91:
 1142               	.L67:
 1143               	.LBE159:
 1144               	.LBE158:
 707:Caterina.c    **** 		// Delegate the block write/read to a separate function for clarity 
 708:Caterina.c    **** 		ReadWriteMemoryBlock(Command);
 709:Caterina.c    **** 	}
 710:Caterina.c    **** 	#endif
 711:Caterina.c    **** 	#if !defined(NO_FLASH_BYTE_SUPPORT)
 712:Caterina.c    **** 	else if (Command == 'C')
 1145               		.loc 1 712 0
 1146 0338 8334      		cpi r24,lo8(67)
 1147 033a 01F4      		brne .L86
 713:Caterina.c    **** 	{
 714:Caterina.c    **** 		// Write the high byte to the current flash page
 715:Caterina.c    **** 		boot_page_fill(CurrAddress, FetchNextCommandByte());
 1148               		.loc 1 715 0
 1149 033c C091 0000 		lds r28,CurrAddress
 1150 0340 D091 0000 		lds r29,CurrAddress+1
 1151 0344 0E94 0000 		call FetchNextCommandByte
 1152               	.LVL92:
 1153 0348 90E0      		ldi r25,0
 1154 034a 21E0      		ldi r18,lo8(1)
 1155 034c FE01      		movw r30,r28
 1156               	/* #APP */
 1157               	 ;  715 "Caterina.c" 1
 1158 034e 0C01      		movw  r0, r24
 1159 0350 2093 5700 		sts 87, r18
 1160 0354 E895      		spm
 1161 0356 1124      		clr  r1
 1162               		
 1163               	 ;  0 "" 2
 1164               	/* #NOAPP */
 1165 0358 00C0      		rjmp .L128
 1166               	.LVL93:
 1167               	.L86:
 716:Caterina.c    **** 
 717:Caterina.c    **** 		// Send confirmation byte back to the host 
 718:Caterina.c    **** 		WriteNextResponseByte('\r');
 719:Caterina.c    **** 	}
 720:Caterina.c    **** 	else if (Command == 'c')
 1168               		.loc 1 720 0
 1169 035a 8336      		cpi r24,lo8(99)
 1170 035c 01F4      		brne .L87
 721:Caterina.c    **** 	{
 722:Caterina.c    **** 		// Write the low byte to the current flash page 
 723:Caterina.c    **** 		boot_page_fill(CurrAddress | 0x01, FetchNextCommandByte());
 1171               		.loc 1 723 0
 1172 035e C090 0000 		lds r12,CurrAddress
 1173 0362 D090 0000 		lds r13,CurrAddress+1
 1174 0366 E090 0000 		lds r14,CurrAddress+2
 1175 036a F090 0000 		lds r15,CurrAddress+3
 1176 036e 0E94 0000 		call FetchNextCommandByte
 1177               	.LVL94:
 1178 0372 F601      		movw r30,r12
 1179 0374 E160      		ori r30,1
 1180 0376 90E0      		ldi r25,0
 1181 0378 21E0      		ldi r18,lo8(1)
 1182               	/* #APP */
 1183               	 ;  723 "Caterina.c" 1
 1184 037a 0C01      		movw  r0, r24
 1185 037c 2093 5700 		sts 87, r18
 1186 0380 E895      		spm
 1187 0382 1124      		clr  r1
 1188               		
 1189               	 ;  0 "" 2
 724:Caterina.c    **** 
 725:Caterina.c    **** 		// Increment the address 
 726:Caterina.c    **** 		CurrAddress += 2;
 1190               		.loc 1 726 0
 1191               	/* #NOAPP */
 1192 0384 F2E0      		ldi r31,2
 1193 0386 CF0E      		add r12,r31
 1194 0388 D11C      		adc r13,__zero_reg__
 1195 038a E11C      		adc r14,__zero_reg__
 1196 038c F11C      		adc r15,__zero_reg__
 1197 038e C092 0000 		sts CurrAddress,r12
 1198 0392 D092 0000 		sts CurrAddress+1,r13
 1199 0396 E092 0000 		sts CurrAddress+2,r14
 1200 039a F092 0000 		sts CurrAddress+3,r15
 1201 039e 00C0      		rjmp .L128
 1202               	.LVL95:
 1203               	.L87:
 727:Caterina.c    **** 
 728:Caterina.c    **** 		// Send confirmation byte back to the host 
 729:Caterina.c    **** 		WriteNextResponseByte('\r');
 730:Caterina.c    **** 	}
 731:Caterina.c    **** 	else if (Command == 'm')
 1204               		.loc 1 731 0
 1205 03a0 8D36      		cpi r24,lo8(109)
 1206 03a2 01F4      		brne .L88
 732:Caterina.c    **** 	{
 733:Caterina.c    **** 		// Commit the flash page to memory
 734:Caterina.c    **** 		boot_page_write(CurrAddress);
 1207               		.loc 1 734 0
 1208 03a4 E091 0000 		lds r30,CurrAddress
 1209 03a8 F091 0000 		lds r31,CurrAddress+1
 1210 03ac 85E0      		ldi r24,lo8(5)
 1211               	.LVL96:
 1212               	/* #APP */
 1213               	 ;  734 "Caterina.c" 1
 1214 03ae 8093 5700 		sts 87, r24
 1215 03b2 E895      		spm
 1216               		
 1217               	 ;  0 "" 2
 1218               	/* #NOAPP */
 1219               	.L89:
 735:Caterina.c    **** 
 736:Caterina.c    **** 		// Wait until write operation has completed 
 737:Caterina.c    **** 		boot_spm_busy_wait();
 1220               		.loc 1 737 0 discriminator 1
 1221 03b4 07B6      		in __tmp_reg__,0x37
 1222 03b6 00FC      		sbrc __tmp_reg__,0
 1223 03b8 00C0      		rjmp .L89
 1224 03ba 00C0      		rjmp .L128
 1225               	.LVL97:
 1226               	.L88:
 738:Caterina.c    **** 
 739:Caterina.c    **** 		// Send confirmation byte back to the host 
 740:Caterina.c    **** 		WriteNextResponseByte('\r');
 741:Caterina.c    **** 	}
 742:Caterina.c    **** 	else if (Command == 'R')
 1227               		.loc 1 742 0
 1228 03bc 8235      		cpi r24,lo8(82)
 1229 03be 01F4      		brne .L90
 1230               	.LBB162:
 1231               	.LBB163:
 743:Caterina.c    **** 	{
 744:Caterina.c    **** 		#if (FLASHEND > 0xFFFF)
 745:Caterina.c    **** 		uint16_t ProgramWord = pgm_read_word_far(CurrAddress);
 746:Caterina.c    **** 		#else
 747:Caterina.c    **** 		uint16_t ProgramWord = pgm_read_word(CurrAddress);
 1232               		.loc 1 747 0
 1233 03c0 E091 0000 		lds r30,CurrAddress
 1234 03c4 F091 0000 		lds r31,CurrAddress+1
 1235               	.LVL98:
 1236               	/* #APP */
 1237               	 ;  747 "Caterina.c" 1
 1238 03c8 C591      		lpm r28, Z+
 1239 03ca D491      		lpm r29, Z
 1240               		
 1241               	 ;  0 "" 2
 1242               	.LVL99:
 1243               	/* #NOAPP */
 1244               	.LBE163:
 748:Caterina.c    **** 		#endif
 749:Caterina.c    **** 
 750:Caterina.c    **** 		WriteNextResponseByte(ProgramWord >> 8);
 1245               		.loc 1 750 0
 1246 03cc 8D2F      		mov r24,r29
 1247               	.LVL100:
 1248 03ce 0E94 0000 		call WriteNextResponseByte
 1249               	.LVL101:
 751:Caterina.c    **** 		WriteNextResponseByte(ProgramWord & 0xFF);
 1250               		.loc 1 751 0
 1251 03d2 8C2F      		mov r24,r28
 1252 03d4 00C0      		rjmp .L129
 1253               	.LVL102:
 1254               	.L90:
 1255               	.LBE162:
 752:Caterina.c    **** 	}
 753:Caterina.c    **** 	#endif
 754:Caterina.c    **** 	#if !defined(NO_EEPROM_BYTE_SUPPORT)
 755:Caterina.c    **** 	else if (Command == 'D')
 1256               		.loc 1 755 0
 1257 03d6 8434      		cpi r24,lo8(68)
 1258 03d8 01F4      		brne .L91
 756:Caterina.c    **** 	{
 757:Caterina.c    **** 		// Read the byte from the endpoint and write it to the EEPROM 
 758:Caterina.c    **** 		eeprom_write_byte((uint8_t*)((intptr_t)(CurrAddress >> 1)), FetchNextCommandByte());
 1259               		.loc 1 758 0
 1260 03da 0E94 0000 		call FetchNextCommandByte
 1261               	.LVL103:
 1262 03de 682F      		mov r22,r24
 1263 03e0 8091 0000 		lds r24,CurrAddress
 1264 03e4 9091 0000 		lds r25,CurrAddress+1
 1265 03e8 A091 0000 		lds r26,CurrAddress+2
 1266 03ec B091 0000 		lds r27,CurrAddress+3
 1267 03f0 B695      		lsr r27
 1268 03f2 A795      		ror r26
 1269 03f4 9795      		ror r25
 1270 03f6 8795      		ror r24
 1271 03f8 0E94 0000 		call eeprom_write_byte
 1272               	.LVL104:
 759:Caterina.c    **** 
 760:Caterina.c    **** 		// Increment the address after use
 761:Caterina.c    **** 		CurrAddress += 2;
 1273               		.loc 1 761 0
 1274 03fc 8091 0000 		lds r24,CurrAddress
 1275 0400 9091 0000 		lds r25,CurrAddress+1
 1276 0404 A091 0000 		lds r26,CurrAddress+2
 1277 0408 B091 0000 		lds r27,CurrAddress+3
 1278 040c 0296      		adiw r24,2
 1279 040e A11D      		adc r26,__zero_reg__
 1280 0410 B11D      		adc r27,__zero_reg__
 1281               	.LVL105:
 1282               	.L130:
 1283 0412 8093 0000 		sts CurrAddress,r24
 1284 0416 9093 0000 		sts CurrAddress+1,r25
 1285 041a A093 0000 		sts CurrAddress+2,r26
 1286 041e B093 0000 		sts CurrAddress+3,r27
 1287 0422 00C0      		rjmp .L128
 1288               	.LVL106:
 1289               	.L91:
 762:Caterina.c    **** 
 763:Caterina.c    **** 		// Send confirmation byte back to the host 
 764:Caterina.c    **** 		WriteNextResponseByte('\r');
 765:Caterina.c    **** 	}
 766:Caterina.c    **** 	else if (Command == 'd')
 1290               		.loc 1 766 0
 1291 0424 8436      		cpi r24,lo8(100)
 1292 0426 01F4      		brne .L92
 767:Caterina.c    **** 	{
 768:Caterina.c    **** 		// Read the EEPROM byte and write it to the endpoint 
 769:Caterina.c    **** 		WriteNextResponseByte(eeprom_read_byte((uint8_t*)((intptr_t)(CurrAddress >> 1))));
 1293               		.loc 1 769 0
 1294 0428 C090 0000 		lds r12,CurrAddress
 1295 042c D090 0000 		lds r13,CurrAddress+1
 1296 0430 E090 0000 		lds r14,CurrAddress+2
 1297 0434 F090 0000 		lds r15,CurrAddress+3
 1298 0438 D701      		movw r26,r14
 1299 043a C601      		movw r24,r12
 1300               	.LVL107:
 1301 043c B695      		lsr r27
 1302 043e A795      		ror r26
 1303 0440 9795      		ror r25
 1304 0442 8795      		ror r24
 1305 0444 0E94 0000 		call eeprom_read_byte
 1306               	.LVL108:
 1307 0448 0E94 0000 		call WriteNextResponseByte
 1308               	.LVL109:
 770:Caterina.c    **** 
 771:Caterina.c    **** 		// Increment the address after use 
 772:Caterina.c    **** 		CurrAddress += 2;
 1309               		.loc 1 772 0
 1310 044c 22E0      		ldi r18,2
 1311 044e C20E      		add r12,r18
 1312 0450 D11C      		adc r13,__zero_reg__
 1313 0452 E11C      		adc r14,__zero_reg__
 1314 0454 F11C      		adc r15,__zero_reg__
 1315 0456 C092 0000 		sts CurrAddress,r12
 1316 045a D092 0000 		sts CurrAddress+1,r13
 1317 045e E092 0000 		sts CurrAddress+2,r14
 1318 0462 F092 0000 		sts CurrAddress+3,r15
 1319 0466 00C0      		rjmp .L45
 1320               	.LVL110:
 1321               	.L92:
 773:Caterina.c    **** 	}
 774:Caterina.c    **** 	#endif
 775:Caterina.c    **** 	else if (Command != 27)
 1322               		.loc 1 775 0
 1323 0468 8B31      		cpi r24,lo8(27)
 1324 046a 01F0      		breq .+2
 1325 046c 00C0      		rjmp .L93
 1326               	.LVL111:
 1327               	.L45:
 1328               	.LBB164:
 1329               	.LBB165:
 330:../../LUFA-111009/LUFA/Drivers/USB/Core/AVR8/../AVR8/Endpoint_AVR8.h **** 				#endif
 1330               		.loc 2 330 0
 1331 046e 83E0      		ldi r24,lo8(3)
 1332 0470 8093 E900 		sts 233,r24
 1333               	.LVL112:
 1334               	.LBE165:
 1335               	.LBE164:
 1336               	.LBB166:
 1337               	.LBB167:
 420:../../LUFA-111009/LUFA/Drivers/USB/Core/AVR8/../AVR8/Endpoint_AVR8.h **** 			}
 1338               		.loc 2 420 0
 1339 0474 9091 E800 		lds r25,232
 1340               	.LVL113:
 1341               	.LBE167:
 1342               	.LBE166:
 1343               	.LBB168:
 1344               	.LBB169:
 516:../../LUFA-111009/LUFA/Drivers/USB/Core/AVR8/../AVR8/Endpoint_AVR8.h **** 				#else
 1345               		.loc 2 516 0
 1346 0478 8091 E800 		lds r24,232
 1347 047c 8E77      		andi r24,lo8(126)
 1348 047e 8093 E800 		sts 232,r24
 1349               	.LBE169:
 1350               	.LBE168:
 776:Caterina.c    **** 	{
 777:Caterina.c    **** 		// Unknown (non-sync) command, return fail code 
 778:Caterina.c    **** 		WriteNextResponseByte('?');
 779:Caterina.c    **** 	}
 780:Caterina.c    **** 	
 781:Caterina.c    **** 
 782:Caterina.c    **** 	/* Select the IN endpoint */
 783:Caterina.c    **** 	Endpoint_SelectEndpoint(CDC_TX_EPNUM);
 784:Caterina.c    **** 
 785:Caterina.c    **** 	/* Remember if the endpoint is completely full before clearing it */
 786:Caterina.c    **** 	bool IsEndpointFull = !(Endpoint_IsReadWriteAllowed());
 787:Caterina.c    **** 
 788:Caterina.c    **** 	/* Send the endpoint data to the host */
 789:Caterina.c    **** 	Endpoint_ClearIN();
 790:Caterina.c    **** 
 791:Caterina.c    **** 	/* If a full endpoint's worth of data was sent, we need to send an empty packet afterwards to sign
 792:Caterina.c    **** 	if (IsEndpointFull)
 1351               		.loc 1 792 0
 1352 0482 95FD      		sbrc r25,5
 1353 0484 00C0      		rjmp .L99
 1354               	.L95:
 1355               	.LBB170:
 1356               	.LBB171:
 467:../../LUFA-111009/LUFA/Drivers/USB/Core/AVR8/../AVR8/Endpoint_AVR8.h **** 			}
 1357               		.loc 2 467 0
 1358 0486 8091 E800 		lds r24,232
 1359               	.LBE171:
 1360               	.LBE170:
 793:Caterina.c    **** 	{
 794:Caterina.c    **** 		while (!(Endpoint_IsINReady()))
 1361               		.loc 1 794 0
 1362 048a 80FD      		sbrc r24,0
 1363 048c 00C0      		rjmp .L133
 795:Caterina.c    **** 		{
 796:Caterina.c    **** 			if (USB_DeviceState == DEVICE_STATE_Unattached)
 1364               		.loc 1 796 0
 1365 048e 8EB3      		in r24,0x1e
 1366 0490 8111      		cpse r24,__zero_reg__
 1367 0492 00C0      		rjmp .L95
 1368 0494 00C0      		rjmp .L39
 1369               	.L133:
 1370               	.LBB172:
 1371               	.LBB173:
 516:../../LUFA-111009/LUFA/Drivers/USB/Core/AVR8/../AVR8/Endpoint_AVR8.h **** 				#else
 1372               		.loc 2 516 0
 1373 0496 8091 E800 		lds r24,232
 1374 049a 8E77      		andi r24,lo8(126)
 1375 049c 8093 E800 		sts 232,r24
 1376 04a0 00C0      		rjmp .L99
 1377               	.L100:
 1378               	.LBE173:
 1379               	.LBE172:
 797:Caterina.c    **** 			  return;
 798:Caterina.c    **** 		}
 799:Caterina.c    **** 
 800:Caterina.c    **** 		Endpoint_ClearIN();
 801:Caterina.c    **** 	}
 802:Caterina.c    **** 
 803:Caterina.c    **** 	/* Wait until the data has been sent to the host */
 804:Caterina.c    **** 	while (!(Endpoint_IsINReady()))
 805:Caterina.c    **** 	{
 806:Caterina.c    **** 		if (USB_DeviceState == DEVICE_STATE_Unattached)
 1380               		.loc 1 806 0
 1381 04a2 8EB3      		in r24,0x1e
 1382 04a4 8823      		tst r24
 1383 04a6 01F0      		breq .L39
 1384               	.L99:
 1385               	.LBB174:
 1386               	.LBB175:
 467:../../LUFA-111009/LUFA/Drivers/USB/Core/AVR8/../AVR8/Endpoint_AVR8.h **** 			}
 1387               		.loc 2 467 0
 1388 04a8 8091 E800 		lds r24,232
 1389               	.LBE175:
 1390               	.LBE174:
 804:Caterina.c    **** 	{
 1391               		.loc 1 804 0
 1392 04ac 80FF      		sbrs r24,0
 1393 04ae 00C0      		rjmp .L100
 1394               	.LVL114:
 1395               	.LBB176:
 1396               	.LBB177:
 330:../../LUFA-111009/LUFA/Drivers/USB/Core/AVR8/../AVR8/Endpoint_AVR8.h **** 				#endif
 1397               		.loc 2 330 0
 1398 04b0 84E0      		ldi r24,lo8(4)
 1399 04b2 8093 E900 		sts 233,r24
 1400               	.LVL115:
 1401               	.LBE177:
 1402               	.LBE176:
 1403               	.LBB178:
 1404               	.LBB179:
 531:../../LUFA-111009/LUFA/Drivers/USB/Core/AVR8/../AVR8/Endpoint_AVR8.h **** 				#else
 1405               		.loc 2 531 0
 1406 04b6 8091 E800 		lds r24,232
 1407 04ba 8B77      		andi r24,lo8(123)
 1408 04bc 8093 E800 		sts 232,r24
 1409               	.LVL116:
 1410               	.L39:
 1411               	/* epilogue start */
 1412               	.LBE179:
 1413               	.LBE178:
 807:Caterina.c    **** 		  return;
 808:Caterina.c    **** 	}
 809:Caterina.c    **** 
 810:Caterina.c    **** 	/* Select the OUT endpoint */
 811:Caterina.c    **** 	Endpoint_SelectEndpoint(CDC_RX_EPNUM);
 812:Caterina.c    **** 
 813:Caterina.c    **** 	/* Acknowledge the command from the host */
 814:Caterina.c    **** 	Endpoint_ClearOUT();
 815:Caterina.c    **** }
 1414               		.loc 1 815 0
 1415 04c0 DF91      		pop r29
 1416 04c2 CF91      		pop r28
 1417 04c4 1F91      		pop r17
 1418 04c6 0F91      		pop r16
 1419 04c8 FF90      		pop r15
 1420 04ca EF90      		pop r14
 1421 04cc DF90      		pop r13
 1422 04ce CF90      		pop r12
 1423 04d0 BF90      		pop r11
 1424 04d2 AF90      		pop r10
 1425 04d4 9F90      		pop r9
 1426 04d6 8F90      		pop r8
 1427 04d8 7F90      		pop r7
 1428 04da 6F90      		pop r6
 1429 04dc 5F90      		pop r5
 1430 04de 4F90      		pop r4
 1431 04e0 0895      		ret
 1432               		.cfi_endproc
 1433               	.LFE107:
 1435               		.section	.text.startup.main,"ax",@progbits
 1436               	.global	main
 1438               	main:
 1439               	.LFB100:
 138:Caterina.c    **** 	/* Save the value of the boot key memory before it is overwritten */
 1440               		.loc 1 138 0
 1441               		.cfi_startproc
 1442 0000 CF93      		push r28
 1443               	.LCFI23:
 1444               		.cfi_def_cfa_offset 3
 1445               		.cfi_offset 28, -2
 1446               	/* prologue: function */
 1447               	/* frame size = 0 */
 1448               	/* stack size = 1 */
 1449               	.L__stack_usage = 1
 140:Caterina.c    **** 	*bootKeyPtr = 0;
 1450               		.loc 1 140 0
 1451 0002 9091 0008 		lds r25,2048
 1452               	.LVL117:
 141:Caterina.c    **** 
 1453               		.loc 1 141 0
 1454 0006 1092 0008 		sts 2048,__zero_reg__
 144:Caterina.c    **** 	MCUSR = 0;							// clear all reset flags	
 1455               		.loc 1 144 0
 1456 000a 84B7      		in r24,0x34
 1457               	.LVL118:
 145:Caterina.c    **** 
 1458               		.loc 1 145 0
 1459 000c 14BE      		out 0x34,__zero_reg__
 1460               	.LBB180:
 1461               	.LBB181:
 1462               		.file 3 "/usr/lib/avr/include/avr/wdt.h"
   1:/usr/lib/avr/include/avr/wdt.h **** /* Copyright (c) 2002, 2004 Marek Michalkiewicz
   2:/usr/lib/avr/include/avr/wdt.h ****    Copyright (c) 2005, 2006, 2007 Eric B. Weddington
   3:/usr/lib/avr/include/avr/wdt.h ****    All rights reserved.
   4:/usr/lib/avr/include/avr/wdt.h **** 
   5:/usr/lib/avr/include/avr/wdt.h ****    Redistribution and use in source and binary forms, with or without
   6:/usr/lib/avr/include/avr/wdt.h ****    modification, are permitted provided that the following conditions are met:
   7:/usr/lib/avr/include/avr/wdt.h **** 
   8:/usr/lib/avr/include/avr/wdt.h ****    * Redistributions of source code must retain the above copyright
   9:/usr/lib/avr/include/avr/wdt.h ****      notice, this list of conditions and the following disclaimer.
  10:/usr/lib/avr/include/avr/wdt.h **** 
  11:/usr/lib/avr/include/avr/wdt.h ****    * Redistributions in binary form must reproduce the above copyright
  12:/usr/lib/avr/include/avr/wdt.h ****      notice, this list of conditions and the following disclaimer in
  13:/usr/lib/avr/include/avr/wdt.h ****      the documentation and/or other materials provided with the
  14:/usr/lib/avr/include/avr/wdt.h ****      distribution.
  15:/usr/lib/avr/include/avr/wdt.h **** 
  16:/usr/lib/avr/include/avr/wdt.h ****    * Neither the name of the copyright holders nor the names of
  17:/usr/lib/avr/include/avr/wdt.h ****      contributors may be used to endorse or promote products derived
  18:/usr/lib/avr/include/avr/wdt.h ****      from this software without specific prior written permission.
  19:/usr/lib/avr/include/avr/wdt.h **** 
  20:/usr/lib/avr/include/avr/wdt.h ****   THIS SOFTWARE IS PROVIDED BY THE COPYRIGHT HOLDERS AND CONTRIBUTORS "AS IS"
  21:/usr/lib/avr/include/avr/wdt.h ****   AND ANY EXPRESS OR IMPLIED WARRANTIES, INCLUDING, BUT NOT LIMITED TO, THE
  22:/usr/lib/avr/include/avr/wdt.h ****   IMPLIED WARRANTIES OF MERCHANTABILITY AND FITNESS FOR A PARTICULAR PURPOSE
  23:/usr/lib/avr/include/avr/wdt.h ****   ARE DISCLAIMED. IN NO EVENT SHALL THE COPYRIGHT OWNER OR CONTRIBUTORS BE
  24:/usr/lib/avr/include/avr/wdt.h ****   LIABLE FOR ANY DIRECT, INDIRECT, INCIDENTAL, SPECIAL, EXEMPLARY, OR
  25:/usr/lib/avr/include/avr/wdt.h ****   CONSEQUENTIAL DAMAGES (INCLUDING, BUT NOT LIMITED TO, PROCUREMENT OF
  26:/usr/lib/avr/include/avr/wdt.h ****   SUBSTITUTE GOODS OR SERVICES; LOSS OF USE, DATA, OR PROFITS; OR BUSINESS
  27:/usr/lib/avr/include/avr/wdt.h ****   INTERRUPTION) HOWEVER CAUSED AND ON ANY THEORY OF LIABILITY, WHETHER IN
  28:/usr/lib/avr/include/avr/wdt.h ****   CONTRACT, STRICT LIABILITY, OR TORT (INCLUDING NEGLIGENCE OR OTHERWISE)
  29:/usr/lib/avr/include/avr/wdt.h ****   ARISING IN ANY WAY OUT OF THE USE OF THIS SOFTWARE, EVEN IF ADVISED OF THE
  30:/usr/lib/avr/include/avr/wdt.h ****   POSSIBILITY OF SUCH DAMAGE. */
  31:/usr/lib/avr/include/avr/wdt.h **** 
  32:/usr/lib/avr/include/avr/wdt.h **** /* $Id$ */
  33:/usr/lib/avr/include/avr/wdt.h **** 
  34:/usr/lib/avr/include/avr/wdt.h **** /*
  35:/usr/lib/avr/include/avr/wdt.h ****    avr/wdt.h - macros for AVR watchdog timer
  36:/usr/lib/avr/include/avr/wdt.h ****  */
  37:/usr/lib/avr/include/avr/wdt.h **** 
  38:/usr/lib/avr/include/avr/wdt.h **** #ifndef _AVR_WDT_H_
  39:/usr/lib/avr/include/avr/wdt.h **** #define _AVR_WDT_H_
  40:/usr/lib/avr/include/avr/wdt.h **** 
  41:/usr/lib/avr/include/avr/wdt.h **** #include <avr/io.h>
  42:/usr/lib/avr/include/avr/wdt.h **** #include <stdint.h>
  43:/usr/lib/avr/include/avr/wdt.h **** 
  44:/usr/lib/avr/include/avr/wdt.h **** /** \file */
  45:/usr/lib/avr/include/avr/wdt.h **** /** \defgroup avr_watchdog <avr/wdt.h>: Watchdog timer handling
  46:/usr/lib/avr/include/avr/wdt.h ****     \code #include <avr/wdt.h> \endcode
  47:/usr/lib/avr/include/avr/wdt.h **** 
  48:/usr/lib/avr/include/avr/wdt.h ****     This header file declares the interface to some inline macros
  49:/usr/lib/avr/include/avr/wdt.h ****     handling the watchdog timer present in many AVR devices.  In order
  50:/usr/lib/avr/include/avr/wdt.h ****     to prevent the watchdog timer configuration from being
  51:/usr/lib/avr/include/avr/wdt.h ****     accidentally altered by a crashing application, a special timed
  52:/usr/lib/avr/include/avr/wdt.h ****     sequence is required in order to change it.  The macros within
  53:/usr/lib/avr/include/avr/wdt.h ****     this header file handle the required sequence automatically
  54:/usr/lib/avr/include/avr/wdt.h ****     before changing any value.  Interrupts will be disabled during
  55:/usr/lib/avr/include/avr/wdt.h ****     the manipulation.
  56:/usr/lib/avr/include/avr/wdt.h **** 
  57:/usr/lib/avr/include/avr/wdt.h ****     \note Depending on the fuse configuration of the particular
  58:/usr/lib/avr/include/avr/wdt.h ****     device, further restrictions might apply, in particular it might
  59:/usr/lib/avr/include/avr/wdt.h ****     be disallowed to turn off the watchdog timer.
  60:/usr/lib/avr/include/avr/wdt.h **** 
  61:/usr/lib/avr/include/avr/wdt.h ****     Note that for newer devices (ATmega88 and newer, effectively any
  62:/usr/lib/avr/include/avr/wdt.h ****     AVR that has the option to also generate interrupts), the watchdog
  63:/usr/lib/avr/include/avr/wdt.h ****     timer remains active even after a system reset (except a power-on
  64:/usr/lib/avr/include/avr/wdt.h ****     condition), using the fastest prescaler value (approximately 15
  65:/usr/lib/avr/include/avr/wdt.h ****     ms).  It is therefore required to turn off the watchdog early
  66:/usr/lib/avr/include/avr/wdt.h ****     during program startup, the datasheet recommends a sequence like
  67:/usr/lib/avr/include/avr/wdt.h ****     the following:
  68:/usr/lib/avr/include/avr/wdt.h **** 
  69:/usr/lib/avr/include/avr/wdt.h ****     \code
  70:/usr/lib/avr/include/avr/wdt.h ****     #include <stdint.h>
  71:/usr/lib/avr/include/avr/wdt.h ****     #include <avr/wdt.h>
  72:/usr/lib/avr/include/avr/wdt.h **** 
  73:/usr/lib/avr/include/avr/wdt.h ****     uint8_t mcusr_mirror __attribute__ ((section (".noinit")));
  74:/usr/lib/avr/include/avr/wdt.h **** 
  75:/usr/lib/avr/include/avr/wdt.h ****     void get_mcusr(void) \
  76:/usr/lib/avr/include/avr/wdt.h ****       __attribute__((naked)) \
  77:/usr/lib/avr/include/avr/wdt.h ****       __attribute__((section(".init3")));
  78:/usr/lib/avr/include/avr/wdt.h ****     void get_mcusr(void)
  79:/usr/lib/avr/include/avr/wdt.h ****     {
  80:/usr/lib/avr/include/avr/wdt.h ****       mcusr_mirror = MCUSR;
  81:/usr/lib/avr/include/avr/wdt.h ****       MCUSR = 0;
  82:/usr/lib/avr/include/avr/wdt.h ****       wdt_disable();
  83:/usr/lib/avr/include/avr/wdt.h ****     }
  84:/usr/lib/avr/include/avr/wdt.h ****     \endcode
  85:/usr/lib/avr/include/avr/wdt.h **** 
  86:/usr/lib/avr/include/avr/wdt.h ****     Saving the value of MCUSR in \c mcusr_mirror is only needed if the
  87:/usr/lib/avr/include/avr/wdt.h ****     application later wants to examine the reset source, but in particular, 
  88:/usr/lib/avr/include/avr/wdt.h ****     clearing the watchdog reset flag before disabling the
  89:/usr/lib/avr/include/avr/wdt.h ****     watchdog is required, according to the datasheet.
  90:/usr/lib/avr/include/avr/wdt.h **** */
  91:/usr/lib/avr/include/avr/wdt.h **** 
  92:/usr/lib/avr/include/avr/wdt.h **** /**
  93:/usr/lib/avr/include/avr/wdt.h ****    \ingroup avr_watchdog
  94:/usr/lib/avr/include/avr/wdt.h ****    Reset the watchdog timer.  When the watchdog timer is enabled,
  95:/usr/lib/avr/include/avr/wdt.h ****    a call to this instruction is required before the timer expires,
  96:/usr/lib/avr/include/avr/wdt.h ****    otherwise a watchdog-initiated device reset will occur. 
  97:/usr/lib/avr/include/avr/wdt.h **** */
  98:/usr/lib/avr/include/avr/wdt.h **** 
  99:/usr/lib/avr/include/avr/wdt.h **** #define wdt_reset() __asm__ __volatile__ ("wdr")
 100:/usr/lib/avr/include/avr/wdt.h **** 
 101:/usr/lib/avr/include/avr/wdt.h **** #ifndef __DOXYGEN__
 102:/usr/lib/avr/include/avr/wdt.h **** 
 103:/usr/lib/avr/include/avr/wdt.h **** #if defined(WDP3)
 104:/usr/lib/avr/include/avr/wdt.h **** # define _WD_PS3_MASK       _BV(WDP3)
 105:/usr/lib/avr/include/avr/wdt.h **** #else
 106:/usr/lib/avr/include/avr/wdt.h **** # define _WD_PS3_MASK       0x00
 107:/usr/lib/avr/include/avr/wdt.h **** #endif
 108:/usr/lib/avr/include/avr/wdt.h **** 
 109:/usr/lib/avr/include/avr/wdt.h **** #if defined(WDTCSR)
 110:/usr/lib/avr/include/avr/wdt.h **** #  define _WD_CONTROL_REG     WDTCSR
 111:/usr/lib/avr/include/avr/wdt.h **** #elif defined(WDTCR)
 112:/usr/lib/avr/include/avr/wdt.h **** #  define _WD_CONTROL_REG     WDTCR
 113:/usr/lib/avr/include/avr/wdt.h **** #else
 114:/usr/lib/avr/include/avr/wdt.h **** #  define _WD_CONTROL_REG     WDT
 115:/usr/lib/avr/include/avr/wdt.h **** #endif
 116:/usr/lib/avr/include/avr/wdt.h **** 
 117:/usr/lib/avr/include/avr/wdt.h **** #if defined(WDTOE)
 118:/usr/lib/avr/include/avr/wdt.h **** #define _WD_CHANGE_BIT      WDTOE
 119:/usr/lib/avr/include/avr/wdt.h **** #else
 120:/usr/lib/avr/include/avr/wdt.h **** #define _WD_CHANGE_BIT      WDCE
 121:/usr/lib/avr/include/avr/wdt.h **** #endif
 122:/usr/lib/avr/include/avr/wdt.h **** 
 123:/usr/lib/avr/include/avr/wdt.h **** #endif	/* !__DOXYGEN__ */
 124:/usr/lib/avr/include/avr/wdt.h **** 
 125:/usr/lib/avr/include/avr/wdt.h **** 
 126:/usr/lib/avr/include/avr/wdt.h **** /**
 127:/usr/lib/avr/include/avr/wdt.h ****    \ingroup avr_watchdog
 128:/usr/lib/avr/include/avr/wdt.h ****    Enable the watchdog timer, configuring it for expiry after
 129:/usr/lib/avr/include/avr/wdt.h ****    \c timeout (which is a combination of the \c WDP0 through
 130:/usr/lib/avr/include/avr/wdt.h ****    \c WDP2 bits to write into the \c WDTCR register; For those devices 
 131:/usr/lib/avr/include/avr/wdt.h ****    that have a \c WDTCSR register, it uses the combination of the \c WDP0 
 132:/usr/lib/avr/include/avr/wdt.h ****    through \c WDP3 bits).
 133:/usr/lib/avr/include/avr/wdt.h **** 
 134:/usr/lib/avr/include/avr/wdt.h ****    See also the symbolic constants \c WDTO_15MS et al.
 135:/usr/lib/avr/include/avr/wdt.h **** */
 136:/usr/lib/avr/include/avr/wdt.h **** 
 137:/usr/lib/avr/include/avr/wdt.h **** 
 138:/usr/lib/avr/include/avr/wdt.h **** #if defined(__AVR_XMEGA__)
 139:/usr/lib/avr/include/avr/wdt.h **** 
 140:/usr/lib/avr/include/avr/wdt.h **** #if defined (WDT_CTRLA) && !defined(RAMPD)
 141:/usr/lib/avr/include/avr/wdt.h **** 
 142:/usr/lib/avr/include/avr/wdt.h **** #define wdt_enable(timeout) \
 143:/usr/lib/avr/include/avr/wdt.h **** do { \
 144:/usr/lib/avr/include/avr/wdt.h **** uint8_t temp; \
 145:/usr/lib/avr/include/avr/wdt.h **** __asm__ __volatile__ ( \
 146:/usr/lib/avr/include/avr/wdt.h **** 	"wdr"									"\n\t" \
 147:/usr/lib/avr/include/avr/wdt.h **** 	"out %[ccp_reg], %[ioreg_cen_mask]"		"\n\t" \
 148:/usr/lib/avr/include/avr/wdt.h **** 	"lds %[tmp], %[wdt_reg]"				"\n\t" \
 149:/usr/lib/avr/include/avr/wdt.h **** 	"sbr %[tmp], %[wdt_enable_timeout]"		"\n\t" \
 150:/usr/lib/avr/include/avr/wdt.h **** 	"sts %[wdt_reg], %[tmp]"				"\n\t" \
 151:/usr/lib/avr/include/avr/wdt.h **** 	"1:lds %[tmp], %[wdt_status_reg]"		"\n\t" \
 152:/usr/lib/avr/include/avr/wdt.h **** 	"sbrc %[tmp], %[wdt_syncbusy_bit]"		"\n\t" \
 153:/usr/lib/avr/include/avr/wdt.h **** 	"rjmp 1b"								"\n\t" \
 154:/usr/lib/avr/include/avr/wdt.h **** 	: [tmp]					"=r" (temp) \
 155:/usr/lib/avr/include/avr/wdt.h **** 	: [ccp_reg]				"I"  (_SFR_IO_ADDR(CCP)), \
 156:/usr/lib/avr/include/avr/wdt.h **** 	  [ioreg_cen_mask]		"r"  ((uint8_t)CCP_IOREG_gc), \
 157:/usr/lib/avr/include/avr/wdt.h **** 	  [wdt_reg]				"n"  (_SFR_MEM_ADDR(WDT_CTRLA)), \
 158:/usr/lib/avr/include/avr/wdt.h **** 	  [wdt_enable_timeout]	"M"  (timeout), \
 159:/usr/lib/avr/include/avr/wdt.h **** 	  [wdt_status_reg]		"n"  (_SFR_MEM_ADDR(WDT_STATUS)), \
 160:/usr/lib/avr/include/avr/wdt.h **** 	  [wdt_syncbusy_bit]	"I"  (WDT_SYNCBUSY_bm) \
 161:/usr/lib/avr/include/avr/wdt.h **** ); \
 162:/usr/lib/avr/include/avr/wdt.h **** } while(0)
 163:/usr/lib/avr/include/avr/wdt.h **** 
 164:/usr/lib/avr/include/avr/wdt.h **** #define wdt_disable() \
 165:/usr/lib/avr/include/avr/wdt.h **** do { \
 166:/usr/lib/avr/include/avr/wdt.h **** uint8_t temp; \
 167:/usr/lib/avr/include/avr/wdt.h **** __asm__ __volatile__ (  \
 168:/usr/lib/avr/include/avr/wdt.h **** 	"wdr"								"\n\t" \
 169:/usr/lib/avr/include/avr/wdt.h **** 	"out %[ccp_reg], %[ioreg_cen_mask]" "\n\t" \
 170:/usr/lib/avr/include/avr/wdt.h **** 	"lds %[tmp], %[wdt_reg]"			"\n\t" \
 171:/usr/lib/avr/include/avr/wdt.h **** 	"cbr %[tmp], %[timeout_mask]"       "\n\t" \
 172:/usr/lib/avr/include/avr/wdt.h **** 	"sts %[wdt_reg], %[tmp]"			"\n\t" \
 173:/usr/lib/avr/include/avr/wdt.h ****     : [tmp]            "=r" (temp) \
 174:/usr/lib/avr/include/avr/wdt.h ****     : [ccp_reg]        "I" (_SFR_IO_ADDR(CCP)),       \
 175:/usr/lib/avr/include/avr/wdt.h ****       [ioreg_cen_mask] "r" ((uint8_t)CCP_IOREG_gc),   \
 176:/usr/lib/avr/include/avr/wdt.h ****       [wdt_reg]        "n" (_SFR_MEM_ADDR(WDT_CTRLA)),\
 177:/usr/lib/avr/include/avr/wdt.h ****       [timeout_mask]   "I" (WDT_PERIOD_gm) \
 178:/usr/lib/avr/include/avr/wdt.h **** ); \
 179:/usr/lib/avr/include/avr/wdt.h **** } while(0)
 180:/usr/lib/avr/include/avr/wdt.h **** 
 181:/usr/lib/avr/include/avr/wdt.h **** #else // defined (WDT_CTRLA) && !defined(RAMPD)
 182:/usr/lib/avr/include/avr/wdt.h **** 
 183:/usr/lib/avr/include/avr/wdt.h **** /*
 184:/usr/lib/avr/include/avr/wdt.h ****    wdt_enable(timeout) for xmega devices
 185:/usr/lib/avr/include/avr/wdt.h **** ** write signature (CCP_IOREG_gc) that enables change of protected I/O
 186:/usr/lib/avr/include/avr/wdt.h ****    registers to the CCP register
 187:/usr/lib/avr/include/avr/wdt.h **** ** At the same time,
 188:/usr/lib/avr/include/avr/wdt.h ****    1) set WDT change enable (WDT_CEN_bm)
 189:/usr/lib/avr/include/avr/wdt.h ****    2) enable WDT (WDT_ENABLE_bm)
 190:/usr/lib/avr/include/avr/wdt.h ****    3) set timeout (timeout)
 191:/usr/lib/avr/include/avr/wdt.h **** ** Synchronization starts when ENABLE bit of WDT is set. So, wait till it
 192:/usr/lib/avr/include/avr/wdt.h ****    finishes (SYNCBUSY of STATUS register is automatically cleared after the
 193:/usr/lib/avr/include/avr/wdt.h ****    sync is finished).
 194:/usr/lib/avr/include/avr/wdt.h **** */
 195:/usr/lib/avr/include/avr/wdt.h **** #define wdt_enable(timeout) \
 196:/usr/lib/avr/include/avr/wdt.h **** do { \
 197:/usr/lib/avr/include/avr/wdt.h **** uint8_t temp; \
 198:/usr/lib/avr/include/avr/wdt.h **** __asm__ __volatile__ (         \
 199:/usr/lib/avr/include/avr/wdt.h ****     "in __tmp_reg__, %[rampd]"              "\n\t" \
 200:/usr/lib/avr/include/avr/wdt.h ****     "out %[rampd], __zero_reg__"            "\n\t" \
 201:/usr/lib/avr/include/avr/wdt.h ****     "out %[ccp_reg], %[ioreg_cen_mask]"     "\n\t" \
 202:/usr/lib/avr/include/avr/wdt.h ****     "sts %[wdt_reg], %[wdt_enable_timeout]" "\n\t" \
 203:/usr/lib/avr/include/avr/wdt.h ****     "1:lds %[tmp], %[wdt_status_reg]"       "\n\t" \
 204:/usr/lib/avr/include/avr/wdt.h ****     "sbrc %[tmp], %[wdt_syncbusy_bit]"      "\n\t" \
 205:/usr/lib/avr/include/avr/wdt.h ****     "rjmp 1b"                               "\n\t" \
 206:/usr/lib/avr/include/avr/wdt.h ****     "out %[rampd], __tmp_reg__"             "\n\t" \
 207:/usr/lib/avr/include/avr/wdt.h ****     : [tmp]                "=r" (temp) \
 208:/usr/lib/avr/include/avr/wdt.h ****     : [rampd]              "I" (_SFR_IO_ADDR(RAMPD)),      \
 209:/usr/lib/avr/include/avr/wdt.h ****       [ccp_reg]            "I" (_SFR_IO_ADDR(CCP)),        \
 210:/usr/lib/avr/include/avr/wdt.h ****       [ioreg_cen_mask]     "r" ((uint8_t)CCP_IOREG_gc),     \
 211:/usr/lib/avr/include/avr/wdt.h ****       [wdt_reg]            "n" (_SFR_MEM_ADDR(WDT_CTRL)),   \
 212:/usr/lib/avr/include/avr/wdt.h ****       [wdt_enable_timeout] "r" ((uint8_t)(WDT_CEN_bm | WDT_ENABLE_bm | timeout)), \
 213:/usr/lib/avr/include/avr/wdt.h ****       [wdt_status_reg]     "n" (_SFR_MEM_ADDR(WDT_STATUS)), \
 214:/usr/lib/avr/include/avr/wdt.h ****       [wdt_syncbusy_bit]   "I" (WDT_SYNCBUSY_bm)            \
 215:/usr/lib/avr/include/avr/wdt.h ****     : "r0" \
 216:/usr/lib/avr/include/avr/wdt.h **** ); \
 217:/usr/lib/avr/include/avr/wdt.h **** } while(0)
 218:/usr/lib/avr/include/avr/wdt.h **** 
 219:/usr/lib/avr/include/avr/wdt.h **** #define wdt_disable() \
 220:/usr/lib/avr/include/avr/wdt.h **** __asm__ __volatile__ (  \
 221:/usr/lib/avr/include/avr/wdt.h ****     "in __tmp_reg__, %[rampd]"          "\n\t" \
 222:/usr/lib/avr/include/avr/wdt.h ****     "out %[rampd], __zero_reg__"        "\n\t" \
 223:/usr/lib/avr/include/avr/wdt.h ****     "out %[ccp_reg], %[ioreg_cen_mask]" "\n\t" \
 224:/usr/lib/avr/include/avr/wdt.h ****     "sts %[wdt_reg], %[disable_mask]"   "\n\t" \
 225:/usr/lib/avr/include/avr/wdt.h ****     "out %[rampd], __tmp_reg__"         "\n\t" \
 226:/usr/lib/avr/include/avr/wdt.h ****     : \
 227:/usr/lib/avr/include/avr/wdt.h ****     : [rampd]             "I" (_SFR_IO_ADDR(RAMPD)),    \
 228:/usr/lib/avr/include/avr/wdt.h ****       [ccp_reg]           "I" (_SFR_IO_ADDR(CCP)),      \
 229:/usr/lib/avr/include/avr/wdt.h ****       [ioreg_cen_mask]    "r" ((uint8_t)CCP_IOREG_gc),   \
 230:/usr/lib/avr/include/avr/wdt.h ****       [wdt_reg]           "n" (_SFR_MEM_ADDR(WDT_CTRL)), \
 231:/usr/lib/avr/include/avr/wdt.h ****       [disable_mask]      "r" ((uint8_t)((~WDT_ENABLE_bm) | WDT_CEN_bm)) \
 232:/usr/lib/avr/include/avr/wdt.h ****     : "r0" \
 233:/usr/lib/avr/include/avr/wdt.h **** );
 234:/usr/lib/avr/include/avr/wdt.h **** 
 235:/usr/lib/avr/include/avr/wdt.h **** #endif // defined (WDT_CTRLA) && !defined(RAMPD)
 236:/usr/lib/avr/include/avr/wdt.h **** 
 237:/usr/lib/avr/include/avr/wdt.h **** #elif defined(__AVR_TINY__)
 238:/usr/lib/avr/include/avr/wdt.h **** 
 239:/usr/lib/avr/include/avr/wdt.h **** #define wdt_enable(value) \
 240:/usr/lib/avr/include/avr/wdt.h **** __asm__ __volatile__ ( \
 241:/usr/lib/avr/include/avr/wdt.h ****     "in __tmp_reg__,__SREG__" "\n\t"  \
 242:/usr/lib/avr/include/avr/wdt.h ****     "cli" "\n\t"  \
 243:/usr/lib/avr/include/avr/wdt.h ****     "wdr" "\n\t"  \
 244:/usr/lib/avr/include/avr/wdt.h ****     "out %[CCPADDRESS],%[SIGNATURE]" "\n\t"  \
 245:/usr/lib/avr/include/avr/wdt.h ****     "out %[WDTREG],%[WDVALUE]" "\n\t"  \
 246:/usr/lib/avr/include/avr/wdt.h ****     "out __SREG__,__tmp_reg__" "\n\t"  \
 247:/usr/lib/avr/include/avr/wdt.h ****     : /* no outputs */  \
 248:/usr/lib/avr/include/avr/wdt.h ****     : [CCPADDRESS] "I" (_SFR_IO_ADDR(CCP)),  \
 249:/usr/lib/avr/include/avr/wdt.h ****       [SIGNATURE] "r" ((uint8_t)0xD8), \
 250:/usr/lib/avr/include/avr/wdt.h ****       [WDTREG] "I" (_SFR_IO_ADDR(_WD_CONTROL_REG)), \
 251:/usr/lib/avr/include/avr/wdt.h ****       [WDVALUE] "r" ((uint8_t)((value & 0x08 ? _WD_PS3_MASK : 0x00) \
 252:/usr/lib/avr/include/avr/wdt.h ****       | _BV(WDE) | (value & 0x07) )) \
 253:/usr/lib/avr/include/avr/wdt.h ****     : "r16" \
 254:/usr/lib/avr/include/avr/wdt.h **** )
 255:/usr/lib/avr/include/avr/wdt.h **** 
 256:/usr/lib/avr/include/avr/wdt.h **** #define wdt_disable() \
 257:/usr/lib/avr/include/avr/wdt.h **** do { \
 258:/usr/lib/avr/include/avr/wdt.h **** uint8_t temp_wd; \
 259:/usr/lib/avr/include/avr/wdt.h **** __asm__ __volatile__ ( \
 260:/usr/lib/avr/include/avr/wdt.h ****     "in __tmp_reg__,__SREG__" "\n\t"  \
 261:/usr/lib/avr/include/avr/wdt.h ****     "cli" "\n\t"  \
 262:/usr/lib/avr/include/avr/wdt.h ****     "wdr" "\n\t"  \
 263:/usr/lib/avr/include/avr/wdt.h ****     "out %[CCPADDRESS],%[SIGNATURE]" "\n\t"  \
 264:/usr/lib/avr/include/avr/wdt.h ****     "in  %[TEMP_WD],%[WDTREG]" "\n\t" \
 265:/usr/lib/avr/include/avr/wdt.h ****     "cbr %[TEMP_WD],%[WDVALUE]" "\n\t" \
 266:/usr/lib/avr/include/avr/wdt.h ****     "out %[WDTREG],%[TEMP_WD]" "\n\t" \
 267:/usr/lib/avr/include/avr/wdt.h ****     "out __SREG__,__tmp_reg__" "\n\t" \
 268:/usr/lib/avr/include/avr/wdt.h ****     : /*no output */ \
 269:/usr/lib/avr/include/avr/wdt.h ****     : [CCPADDRESS] "I" (_SFR_IO_ADDR(CCP)), \
 270:/usr/lib/avr/include/avr/wdt.h ****       [SIGNATURE] "r" ((uint8_t)0xD8), \
 271:/usr/lib/avr/include/avr/wdt.h ****       [WDTREG] "I" (_SFR_IO_ADDR(_WD_CONTROL_REG)), \
 272:/usr/lib/avr/include/avr/wdt.h ****       [TEMP_WD] "d" (temp_wd), \
 273:/usr/lib/avr/include/avr/wdt.h ****       [WDVALUE] "n" (1 << WDE) \
 274:/usr/lib/avr/include/avr/wdt.h ****     : "r16" \
 275:/usr/lib/avr/include/avr/wdt.h **** ); \
 276:/usr/lib/avr/include/avr/wdt.h **** }while(0)
 277:/usr/lib/avr/include/avr/wdt.h **** 
 278:/usr/lib/avr/include/avr/wdt.h **** #elif defined(CCP)
 279:/usr/lib/avr/include/avr/wdt.h **** 
 280:/usr/lib/avr/include/avr/wdt.h **** static __inline__
 281:/usr/lib/avr/include/avr/wdt.h **** __attribute__ ((__always_inline__))
 282:/usr/lib/avr/include/avr/wdt.h **** void wdt_enable (const uint8_t value)
 283:/usr/lib/avr/include/avr/wdt.h **** {
 284:/usr/lib/avr/include/avr/wdt.h **** 	if (!_SFR_IO_REG_P (CCP) && !_SFR_IO_REG_P (_WD_CONTROL_REG))
 285:/usr/lib/avr/include/avr/wdt.h **** 	{
 286:/usr/lib/avr/include/avr/wdt.h **** 		__asm__ __volatile__ (
 287:/usr/lib/avr/include/avr/wdt.h **** 			"in __tmp_reg__,__SREG__" "\n\t"
 288:/usr/lib/avr/include/avr/wdt.h **** 			"cli" "\n\t"
 289:/usr/lib/avr/include/avr/wdt.h **** 			"wdr" "\n\t"
 290:/usr/lib/avr/include/avr/wdt.h **** 			"sts %[CCPADDRESS],%[SIGNATURE]" "\n\t"
 291:/usr/lib/avr/include/avr/wdt.h **** 			"sts %[WDTREG],%[WDVALUE]" "\n\t"
 292:/usr/lib/avr/include/avr/wdt.h **** 			"out __SREG__,__tmp_reg__" "\n\t"
 293:/usr/lib/avr/include/avr/wdt.h **** 			: /* no outputs */
 294:/usr/lib/avr/include/avr/wdt.h **** 			: [CCPADDRESS] "n" (_SFR_MEM_ADDR(CCP)),
 295:/usr/lib/avr/include/avr/wdt.h **** 			[SIGNATURE] "r" ((uint8_t)0xD8),
 296:/usr/lib/avr/include/avr/wdt.h **** 			[WDTREG] "n" (_SFR_MEM_ADDR(_WD_CONTROL_REG)),
 297:/usr/lib/avr/include/avr/wdt.h **** 			[WDVALUE] "r" ((uint8_t)((value & 0x08 ? _WD_PS3_MASK : 0x00)
 298:/usr/lib/avr/include/avr/wdt.h **** 				| _BV(WDE) | (value & 0x07) ))
 299:/usr/lib/avr/include/avr/wdt.h **** 			: "r0"
 300:/usr/lib/avr/include/avr/wdt.h **** 			);
 301:/usr/lib/avr/include/avr/wdt.h **** 	}
 302:/usr/lib/avr/include/avr/wdt.h **** 	else if (!_SFR_IO_REG_P (CCP) && _SFR_IO_REG_P (_WD_CONTROL_REG))
 303:/usr/lib/avr/include/avr/wdt.h **** 	{
 304:/usr/lib/avr/include/avr/wdt.h **** 		__asm__ __volatile__ (
 305:/usr/lib/avr/include/avr/wdt.h **** 			"in __tmp_reg__,__SREG__" "\n\t"
 306:/usr/lib/avr/include/avr/wdt.h **** 			"cli" "\n\t"
 307:/usr/lib/avr/include/avr/wdt.h **** 			"wdr" "\n\t"
 308:/usr/lib/avr/include/avr/wdt.h **** 			"sts %[CCPADDRESS],%[SIGNATURE]" "\n\t"
 309:/usr/lib/avr/include/avr/wdt.h **** 			"out %[WDTREG],%[WDVALUE]" "\n\t"
 310:/usr/lib/avr/include/avr/wdt.h **** 			"out __SREG__,__tmp_reg__" "\n\t"
 311:/usr/lib/avr/include/avr/wdt.h **** 			: /* no outputs */
 312:/usr/lib/avr/include/avr/wdt.h **** 			: [CCPADDRESS] "n" (_SFR_MEM_ADDR(CCP)),
 313:/usr/lib/avr/include/avr/wdt.h **** 			[SIGNATURE] "r" ((uint8_t)0xD8),
 314:/usr/lib/avr/include/avr/wdt.h **** 			[WDTREG] "I" (_SFR_IO_ADDR(_WD_CONTROL_REG)),
 315:/usr/lib/avr/include/avr/wdt.h **** 			[WDVALUE] "r" ((uint8_t)((value & 0x08 ? _WD_PS3_MASK : 0x00)
 316:/usr/lib/avr/include/avr/wdt.h **** 				| _BV(WDE) | (value & 0x07) ))
 317:/usr/lib/avr/include/avr/wdt.h **** 			: "r0"
 318:/usr/lib/avr/include/avr/wdt.h **** 			);
 319:/usr/lib/avr/include/avr/wdt.h **** 	}
 320:/usr/lib/avr/include/avr/wdt.h **** 	else if (_SFR_IO_REG_P (CCP) && !_SFR_IO_REG_P (_WD_CONTROL_REG))
 321:/usr/lib/avr/include/avr/wdt.h **** 	{
 322:/usr/lib/avr/include/avr/wdt.h **** 		__asm__ __volatile__ (
 323:/usr/lib/avr/include/avr/wdt.h **** 			"in __tmp_reg__,__SREG__" "\n\t"
 324:/usr/lib/avr/include/avr/wdt.h **** 			"cli" "\n\t"
 325:/usr/lib/avr/include/avr/wdt.h **** 			"wdr" "\n\t"
 326:/usr/lib/avr/include/avr/wdt.h **** 			"out %[CCPADDRESS],%[SIGNATURE]" "\n\t"
 327:/usr/lib/avr/include/avr/wdt.h **** 			"sts %[WDTREG],%[WDVALUE]" "\n\t"
 328:/usr/lib/avr/include/avr/wdt.h **** 			"out __SREG__,__tmp_reg__" "\n\t"
 329:/usr/lib/avr/include/avr/wdt.h **** 			: /* no outputs */
 330:/usr/lib/avr/include/avr/wdt.h **** 			: [CCPADDRESS] "I" (_SFR_IO_ADDR(CCP)),
 331:/usr/lib/avr/include/avr/wdt.h **** 			[SIGNATURE] "r" ((uint8_t)0xD8),
 332:/usr/lib/avr/include/avr/wdt.h **** 			[WDTREG] "n" (_SFR_MEM_ADDR(_WD_CONTROL_REG)),
 333:/usr/lib/avr/include/avr/wdt.h **** 			[WDVALUE] "r" ((uint8_t)((value & 0x08 ? _WD_PS3_MASK : 0x00)
 334:/usr/lib/avr/include/avr/wdt.h **** 				| _BV(WDE) | (value & 0x07) ))
 335:/usr/lib/avr/include/avr/wdt.h **** 			: "r0"
 336:/usr/lib/avr/include/avr/wdt.h **** 			);
 337:/usr/lib/avr/include/avr/wdt.h **** 	}
 338:/usr/lib/avr/include/avr/wdt.h **** 	else
 339:/usr/lib/avr/include/avr/wdt.h ****  	{
 340:/usr/lib/avr/include/avr/wdt.h **** 		__asm__ __volatile__ (
 341:/usr/lib/avr/include/avr/wdt.h **** 			"in __tmp_reg__,__SREG__" "\n\t"
 342:/usr/lib/avr/include/avr/wdt.h **** 			"cli" "\n\t"
 343:/usr/lib/avr/include/avr/wdt.h **** 			"wdr" "\n\t"
 344:/usr/lib/avr/include/avr/wdt.h **** 			"out %[CCPADDRESS],%[SIGNATURE]" "\n\t"
 345:/usr/lib/avr/include/avr/wdt.h **** 			"out %[WDTREG],%[WDVALUE]" "\n\t"
 346:/usr/lib/avr/include/avr/wdt.h **** 			"out __SREG__,__tmp_reg__" "\n\t"
 347:/usr/lib/avr/include/avr/wdt.h **** 			: /* no outputs */
 348:/usr/lib/avr/include/avr/wdt.h **** 			: [CCPADDRESS] "I" (_SFR_IO_ADDR(CCP)),
 349:/usr/lib/avr/include/avr/wdt.h **** 			[SIGNATURE] "r" ((uint8_t)0xD8),
 350:/usr/lib/avr/include/avr/wdt.h **** 			[WDTREG] "I" (_SFR_IO_ADDR(_WD_CONTROL_REG)),
 351:/usr/lib/avr/include/avr/wdt.h **** 			[WDVALUE] "r" ((uint8_t)((value & 0x08 ? _WD_PS3_MASK : 0x00)
 352:/usr/lib/avr/include/avr/wdt.h **** 				| _BV(WDE) | (value & 0x07) ))
 353:/usr/lib/avr/include/avr/wdt.h **** 			: "r0"
 354:/usr/lib/avr/include/avr/wdt.h **** 			);
 355:/usr/lib/avr/include/avr/wdt.h **** 	}
 356:/usr/lib/avr/include/avr/wdt.h **** }
 357:/usr/lib/avr/include/avr/wdt.h **** 
 358:/usr/lib/avr/include/avr/wdt.h **** static __inline__
 359:/usr/lib/avr/include/avr/wdt.h **** __attribute__ ((__always_inline__))
 360:/usr/lib/avr/include/avr/wdt.h **** void wdt_disable (void)
 361:/usr/lib/avr/include/avr/wdt.h **** {
 362:/usr/lib/avr/include/avr/wdt.h **** 	if (!_SFR_IO_REG_P (CCP) && !_SFR_IO_REG_P(_WD_CONTROL_REG))
 363:/usr/lib/avr/include/avr/wdt.h **** 	{
 364:/usr/lib/avr/include/avr/wdt.h ****         uint8_t temp_wd;
 365:/usr/lib/avr/include/avr/wdt.h ****         __asm__ __volatile__ (
 366:/usr/lib/avr/include/avr/wdt.h **** 				"in __tmp_reg__,__SREG__" "\n\t"
 367:/usr/lib/avr/include/avr/wdt.h **** 				"cli" "\n\t"
 368:/usr/lib/avr/include/avr/wdt.h **** 				"wdr" "\n\t"
 369:/usr/lib/avr/include/avr/wdt.h **** 				"sts %[CCPADDRESS],%[SIGNATURE]" "\n\t"
 370:/usr/lib/avr/include/avr/wdt.h **** 				"lds %[TEMP_WD],%[WDTREG]" "\n\t"
 371:/usr/lib/avr/include/avr/wdt.h **** 				"cbr %[TEMP_WD],%[WDVALUE]" "\n\t"
 372:/usr/lib/avr/include/avr/wdt.h **** 				"sts %[WDTREG],%[TEMP_WD]" "\n\t"
 373:/usr/lib/avr/include/avr/wdt.h **** 				"out __SREG__,__tmp_reg__" "\n\t"
 374:/usr/lib/avr/include/avr/wdt.h **** 				: /*no output */
 375:/usr/lib/avr/include/avr/wdt.h **** 				: [CCPADDRESS] "n" (_SFR_MEM_ADDR(CCP)),
 376:/usr/lib/avr/include/avr/wdt.h **** 				[SIGNATURE] "r" ((uint8_t)0xD8),
 377:/usr/lib/avr/include/avr/wdt.h **** 				[WDTREG] "n" (_SFR_MEM_ADDR(_WD_CONTROL_REG)),
 378:/usr/lib/avr/include/avr/wdt.h **** 				[TEMP_WD] "d" (temp_wd),
 379:/usr/lib/avr/include/avr/wdt.h **** 				[WDVALUE] "n" (1 << WDE)
 380:/usr/lib/avr/include/avr/wdt.h **** 				: "r0"
 381:/usr/lib/avr/include/avr/wdt.h **** 				);
 382:/usr/lib/avr/include/avr/wdt.h **** 	}
 383:/usr/lib/avr/include/avr/wdt.h **** 	else if (!_SFR_IO_REG_P (CCP) && _SFR_IO_REG_P(_WD_CONTROL_REG))
 384:/usr/lib/avr/include/avr/wdt.h **** 	{
 385:/usr/lib/avr/include/avr/wdt.h ****         uint8_t temp_wd;
 386:/usr/lib/avr/include/avr/wdt.h ****         __asm__ __volatile__ (
 387:/usr/lib/avr/include/avr/wdt.h **** 				"in __tmp_reg__,__SREG__" "\n\t"
 388:/usr/lib/avr/include/avr/wdt.h **** 				"cli" "\n\t"
 389:/usr/lib/avr/include/avr/wdt.h **** 				"wdr" "\n\t"
 390:/usr/lib/avr/include/avr/wdt.h **** 				"sts %[CCPADDRESS],%[SIGNATURE]" "\n\t"
 391:/usr/lib/avr/include/avr/wdt.h **** 				"in %[TEMP_WD],%[WDTREG]" "\n\t"
 392:/usr/lib/avr/include/avr/wdt.h **** 				"cbr %[TEMP_WD],%[WDVALUE]" "\n\t"
 393:/usr/lib/avr/include/avr/wdt.h **** 				"out %[WDTREG],%[TEMP_WD]" "\n\t"
 394:/usr/lib/avr/include/avr/wdt.h **** 				"out __SREG__,__tmp_reg__" "\n\t"
 395:/usr/lib/avr/include/avr/wdt.h **** 				: /*no output */
 396:/usr/lib/avr/include/avr/wdt.h **** 				: [CCPADDRESS] "n" (_SFR_MEM_ADDR(CCP)),
 397:/usr/lib/avr/include/avr/wdt.h **** 				[SIGNATURE] "r" ((uint8_t)0xD8),
 398:/usr/lib/avr/include/avr/wdt.h **** 				[WDTREG] "I" (_SFR_IO_ADDR(_WD_CONTROL_REG)),
 399:/usr/lib/avr/include/avr/wdt.h **** 				[TEMP_WD] "d" (temp_wd),
 400:/usr/lib/avr/include/avr/wdt.h **** 				[WDVALUE] "n" (1 << WDE)
 401:/usr/lib/avr/include/avr/wdt.h **** 				: "r0"
 402:/usr/lib/avr/include/avr/wdt.h **** 				);
 403:/usr/lib/avr/include/avr/wdt.h **** 	}
 404:/usr/lib/avr/include/avr/wdt.h **** 	else if (_SFR_IO_REG_P (CCP) && !_SFR_IO_REG_P(_WD_CONTROL_REG))
 405:/usr/lib/avr/include/avr/wdt.h **** 	{
 406:/usr/lib/avr/include/avr/wdt.h ****         uint8_t temp_wd;
 407:/usr/lib/avr/include/avr/wdt.h ****         __asm__ __volatile__ (
 408:/usr/lib/avr/include/avr/wdt.h **** 				"in __tmp_reg__,__SREG__" "\n\t"
 409:/usr/lib/avr/include/avr/wdt.h **** 				"cli" "\n\t"
 410:/usr/lib/avr/include/avr/wdt.h **** 				"wdr" "\n\t"
 411:/usr/lib/avr/include/avr/wdt.h **** 				"out %[CCPADDRESS],%[SIGNATURE]" "\n\t"
 412:/usr/lib/avr/include/avr/wdt.h **** 				"lds %[TEMP_WD],%[WDTREG]" "\n\t"
 413:/usr/lib/avr/include/avr/wdt.h **** 				"cbr %[TEMP_WD],%[WDVALUE]" "\n\t"
 414:/usr/lib/avr/include/avr/wdt.h **** 				"sts %[WDTREG],%[TEMP_WD]" "\n\t"
 415:/usr/lib/avr/include/avr/wdt.h **** 				"out __SREG__,__tmp_reg__" "\n\t"
 416:/usr/lib/avr/include/avr/wdt.h **** 				: /*no output */
 417:/usr/lib/avr/include/avr/wdt.h **** 				: [CCPADDRESS] "I" (_SFR_IO_ADDR(CCP)),
 418:/usr/lib/avr/include/avr/wdt.h **** 				[SIGNATURE] "r" ((uint8_t)0xD8),
 419:/usr/lib/avr/include/avr/wdt.h **** 				[WDTREG] "n" (_SFR_MEM_ADDR(_WD_CONTROL_REG)),
 420:/usr/lib/avr/include/avr/wdt.h **** 				[TEMP_WD] "d" (temp_wd),
 421:/usr/lib/avr/include/avr/wdt.h **** 				[WDVALUE] "n" (1 << WDE)
 422:/usr/lib/avr/include/avr/wdt.h **** 				: "r0"
 423:/usr/lib/avr/include/avr/wdt.h **** 				);
 424:/usr/lib/avr/include/avr/wdt.h **** 	}
 425:/usr/lib/avr/include/avr/wdt.h **** 	else
 426:/usr/lib/avr/include/avr/wdt.h **** 	{
 427:/usr/lib/avr/include/avr/wdt.h ****         uint8_t temp_wd;
 428:/usr/lib/avr/include/avr/wdt.h ****         __asm__ __volatile__ (
 429:/usr/lib/avr/include/avr/wdt.h **** 				"in __tmp_reg__,__SREG__" "\n\t"
 430:/usr/lib/avr/include/avr/wdt.h **** 				"cli" "\n\t"
 431:/usr/lib/avr/include/avr/wdt.h **** 				"wdr" "\n\t"
 432:/usr/lib/avr/include/avr/wdt.h **** 				"out %[CCPADDRESS],%[SIGNATURE]" "\n\t"
 433:/usr/lib/avr/include/avr/wdt.h **** 				"in %[TEMP_WD],%[WDTREG]" "\n\t"
 434:/usr/lib/avr/include/avr/wdt.h **** 				"cbr %[TEMP_WD],%[WDVALUE]" "\n\t"
 435:/usr/lib/avr/include/avr/wdt.h **** 				"out %[WDTREG],%[TEMP_WD]" "\n\t"
 436:/usr/lib/avr/include/avr/wdt.h **** 				"out __SREG__,__tmp_reg__" "\n\t"
 437:/usr/lib/avr/include/avr/wdt.h **** 				: /*no output */
 438:/usr/lib/avr/include/avr/wdt.h **** 				: [CCPADDRESS] "I" (_SFR_IO_ADDR(CCP)),
 439:/usr/lib/avr/include/avr/wdt.h **** 				[SIGNATURE] "r" ((uint8_t)0xD8),
 440:/usr/lib/avr/include/avr/wdt.h **** 				[WDTREG] "I" (_SFR_IO_ADDR(_WD_CONTROL_REG)),
 441:/usr/lib/avr/include/avr/wdt.h **** 				[TEMP_WD] "d" (temp_wd),
 442:/usr/lib/avr/include/avr/wdt.h **** 				[WDVALUE] "n" (1 << WDE)
 443:/usr/lib/avr/include/avr/wdt.h **** 				: "r0"
 444:/usr/lib/avr/include/avr/wdt.h **** 				);
 445:/usr/lib/avr/include/avr/wdt.h **** 	}
 446:/usr/lib/avr/include/avr/wdt.h **** }
 447:/usr/lib/avr/include/avr/wdt.h **** 
 448:/usr/lib/avr/include/avr/wdt.h **** #else
 449:/usr/lib/avr/include/avr/wdt.h **** 
 450:/usr/lib/avr/include/avr/wdt.h **** static __inline__
 451:/usr/lib/avr/include/avr/wdt.h **** __attribute__ ((__always_inline__))
 452:/usr/lib/avr/include/avr/wdt.h **** void wdt_enable (const uint8_t value)
 453:/usr/lib/avr/include/avr/wdt.h **** {
 454:/usr/lib/avr/include/avr/wdt.h **** 	if (_SFR_IO_REG_P (_WD_CONTROL_REG))
 455:/usr/lib/avr/include/avr/wdt.h **** 	{
 456:/usr/lib/avr/include/avr/wdt.h **** 		__asm__ __volatile__ (
 457:/usr/lib/avr/include/avr/wdt.h **** 				"in __tmp_reg__,__SREG__" "\n\t"
 458:/usr/lib/avr/include/avr/wdt.h **** 				"cli" "\n\t"
 459:/usr/lib/avr/include/avr/wdt.h **** 				"wdr" "\n\t"
 460:/usr/lib/avr/include/avr/wdt.h **** 				"out %0, %1" "\n\t"
 461:/usr/lib/avr/include/avr/wdt.h **** 				"out __SREG__,__tmp_reg__" "\n\t"
 462:/usr/lib/avr/include/avr/wdt.h **** 				"out %0, %2" "\n \t"
 463:/usr/lib/avr/include/avr/wdt.h **** 				: /* no outputs */
 464:/usr/lib/avr/include/avr/wdt.h **** 				: "I" (_SFR_IO_ADDR(_WD_CONTROL_REG)),
 465:/usr/lib/avr/include/avr/wdt.h **** 				"r" ((uint8_t)(_BV(_WD_CHANGE_BIT) | _BV(WDE))),
 466:/usr/lib/avr/include/avr/wdt.h **** 				"r" ((uint8_t) ((value & 0x08 ? _WD_PS3_MASK : 0x00) |
 467:/usr/lib/avr/include/avr/wdt.h **** 						_BV(WDE) | (value & 0x07)) )
 468:/usr/lib/avr/include/avr/wdt.h **** 				: "r0"
 469:/usr/lib/avr/include/avr/wdt.h **** 		);
 470:/usr/lib/avr/include/avr/wdt.h **** 	}
 471:/usr/lib/avr/include/avr/wdt.h **** 	else
 472:/usr/lib/avr/include/avr/wdt.h **** 	{
 473:/usr/lib/avr/include/avr/wdt.h **** 		__asm__ __volatile__ (
 474:/usr/lib/avr/include/avr/wdt.h **** 				"in __tmp_reg__,__SREG__" "\n\t"
 475:/usr/lib/avr/include/avr/wdt.h **** 				"cli" "\n\t"
 476:/usr/lib/avr/include/avr/wdt.h **** 				"wdr" "\n\t"
 477:/usr/lib/avr/include/avr/wdt.h **** 				"sts %0, %1" "\n\t"
 478:/usr/lib/avr/include/avr/wdt.h **** 				"out __SREG__,__tmp_reg__" "\n\t"
 479:/usr/lib/avr/include/avr/wdt.h **** 				"sts %0, %2" "\n \t"
 480:/usr/lib/avr/include/avr/wdt.h **** 				: /* no outputs */
 481:/usr/lib/avr/include/avr/wdt.h **** 				: "n" (_SFR_MEM_ADDR(_WD_CONTROL_REG)),
 482:/usr/lib/avr/include/avr/wdt.h **** 				"r" ((uint8_t)(_BV(_WD_CHANGE_BIT) | _BV(WDE))),
 483:/usr/lib/avr/include/avr/wdt.h **** 				"r" ((uint8_t) ((value & 0x08 ? _WD_PS3_MASK : 0x00) |
 484:/usr/lib/avr/include/avr/wdt.h **** 						_BV(WDE) | (value & 0x07)) )
 485:/usr/lib/avr/include/avr/wdt.h **** 				: "r0"
 486:/usr/lib/avr/include/avr/wdt.h **** 		);
 487:/usr/lib/avr/include/avr/wdt.h **** 	}
 488:/usr/lib/avr/include/avr/wdt.h **** }
 489:/usr/lib/avr/include/avr/wdt.h **** 
 490:/usr/lib/avr/include/avr/wdt.h **** static __inline__
 491:/usr/lib/avr/include/avr/wdt.h **** __attribute__ ((__always_inline__))
 492:/usr/lib/avr/include/avr/wdt.h **** void wdt_disable (void)
 493:/usr/lib/avr/include/avr/wdt.h **** {
 494:/usr/lib/avr/include/avr/wdt.h **** 	if (_SFR_IO_REG_P (_WD_CONTROL_REG))
 495:/usr/lib/avr/include/avr/wdt.h **** 	{
 496:/usr/lib/avr/include/avr/wdt.h ****         uint8_t register temp_reg;
 497:/usr/lib/avr/include/avr/wdt.h **** 		__asm__ __volatile__ (
 498:/usr/lib/avr/include/avr/wdt.h **** 				"in __tmp_reg__,__SREG__"    "\n\t"
 499:/usr/lib/avr/include/avr/wdt.h **** 				"cli"                        "\n\t"
 500:/usr/lib/avr/include/avr/wdt.h **** 				"wdr"                        "\n\t"
 501:/usr/lib/avr/include/avr/wdt.h **** 				"in  %[TEMPREG],%[WDTREG]"   "\n\t"
 502:/usr/lib/avr/include/avr/wdt.h **** 				"ori %[TEMPREG],%[WDCE_WDE]" "\n\t"
 503:/usr/lib/avr/include/avr/wdt.h **** 				"out %[WDTREG],%[TEMPREG]"   "\n\t"
 504:/usr/lib/avr/include/avr/wdt.h **** 				"out %[WDTREG],__zero_reg__" "\n\t"
 505:/usr/lib/avr/include/avr/wdt.h **** 				"out __SREG__,__tmp_reg__"   "\n\t"
 506:/usr/lib/avr/include/avr/wdt.h **** 				: [TEMPREG] "=d" (temp_reg)
 507:/usr/lib/avr/include/avr/wdt.h **** 				: [WDTREG]  "I"  (_SFR_IO_ADDR(_WD_CONTROL_REG)),
 508:/usr/lib/avr/include/avr/wdt.h **** 				[WDCE_WDE]  "n"  ((uint8_t)(_BV(_WD_CHANGE_BIT) | _BV(WDE)))
 509:/usr/lib/avr/include/avr/wdt.h **** 				: "r0"
 510:/usr/lib/avr/include/avr/wdt.h **** 		);
 511:/usr/lib/avr/include/avr/wdt.h **** 	}
 512:/usr/lib/avr/include/avr/wdt.h **** 	else
 513:/usr/lib/avr/include/avr/wdt.h **** 	{
 514:/usr/lib/avr/include/avr/wdt.h ****         uint8_t register temp_reg;
 515:/usr/lib/avr/include/avr/wdt.h **** 		__asm__ __volatile__ (
 1463               		.loc 3 515 0
 1464               	/* #APP */
 1465               	 ;  515 "/usr/lib/avr/include/avr/wdt.h" 1
 1466 000e 0FB6      		in __tmp_reg__,__SREG__
 1467 0010 F894      		cli
 1468 0012 A895      		wdr
 1469 0014 2091 6000 		lds r18,96
 1470 0018 2861      		ori r18,24
 1471 001a 2093 6000 		sts 96,r18
 1472 001e 1092 6000 		sts 96,__zero_reg__
 1473 0022 0FBE      		out __SREG__,__tmp_reg__
 1474               		
 1475               	 ;  0 "" 2
 1476               	.LVL119:
 1477               	/* #NOAPP */
 1478               	.LBE181:
 1479               	.LBE180:
 1480               	.LBB182:
 1481               	.LBB183:
 1482               		.file 4 "/usr/lib/avr/include/avr/power.h"
   1:/usr/lib/avr/include/avr/power.h **** /* Copyright (c) 2006, 2007, 2008  Eric B. Weddington
   2:/usr/lib/avr/include/avr/power.h ****    Copyright (c) 2011 Frdric Nadeau
   3:/usr/lib/avr/include/avr/power.h ****    All rights reserved.
   4:/usr/lib/avr/include/avr/power.h **** 
   5:/usr/lib/avr/include/avr/power.h ****    Redistribution and use in source and binary forms, with or without
   6:/usr/lib/avr/include/avr/power.h ****    modification, are permitted provided that the following conditions are met:
   7:/usr/lib/avr/include/avr/power.h **** 
   8:/usr/lib/avr/include/avr/power.h ****    * Redistributions of source code must retain the above copyright
   9:/usr/lib/avr/include/avr/power.h ****      notice, this list of conditions and the following disclaimer.
  10:/usr/lib/avr/include/avr/power.h ****    * Redistributions in binary form must reproduce the above copyright
  11:/usr/lib/avr/include/avr/power.h ****      notice, this list of conditions and the following disclaimer in
  12:/usr/lib/avr/include/avr/power.h ****      the documentation and/or other materials provided with the
  13:/usr/lib/avr/include/avr/power.h ****      distribution.
  14:/usr/lib/avr/include/avr/power.h ****    * Neither the name of the copyright holders nor the names of
  15:/usr/lib/avr/include/avr/power.h ****      contributors may be used to endorse or promote products derived
  16:/usr/lib/avr/include/avr/power.h ****      from this software without specific prior written permission.
  17:/usr/lib/avr/include/avr/power.h **** 
  18:/usr/lib/avr/include/avr/power.h ****   THIS SOFTWARE IS PROVIDED BY THE COPYRIGHT HOLDERS AND CONTRIBUTORS "AS IS"
  19:/usr/lib/avr/include/avr/power.h ****   AND ANY EXPRESS OR IMPLIED WARRANTIES, INCLUDING, BUT NOT LIMITED TO, THE
  20:/usr/lib/avr/include/avr/power.h ****   IMPLIED WARRANTIES OF MERCHANTABILITY AND FITNESS FOR A PARTICULAR PURPOSE
  21:/usr/lib/avr/include/avr/power.h ****   ARE DISCLAIMED. IN NO EVENT SHALL THE COPYRIGHT OWNER OR CONTRIBUTORS BE
  22:/usr/lib/avr/include/avr/power.h ****   LIABLE FOR ANY DIRECT, INDIRECT, INCIDENTAL, SPECIAL, EXEMPLARY, OR
  23:/usr/lib/avr/include/avr/power.h ****   CONSEQUENTIAL DAMAGES (INCLUDING, BUT NOT LIMITED TO, PROCUREMENT OF
  24:/usr/lib/avr/include/avr/power.h ****   SUBSTITUTE GOODS OR SERVICES; LOSS OF USE, DATA, OR PROFITS; OR BUSINESS
  25:/usr/lib/avr/include/avr/power.h ****   INTERRUPTION) HOWEVER CAUSED AND ON ANY THEORY OF LIABILITY, WHETHER IN
  26:/usr/lib/avr/include/avr/power.h ****   CONTRACT, STRICT LIABILITY, OR TORT (INCLUDING NEGLIGENCE OR OTHERWISE)
  27:/usr/lib/avr/include/avr/power.h ****   ARISING IN ANY WAY OUT OF THE USE OF THIS SOFTWARE, EVEN IF ADVISED OF THE
  28:/usr/lib/avr/include/avr/power.h ****   POSSIBILITY OF SUCH DAMAGE. */
  29:/usr/lib/avr/include/avr/power.h **** 
  30:/usr/lib/avr/include/avr/power.h **** /* $Id$ */
  31:/usr/lib/avr/include/avr/power.h **** 
  32:/usr/lib/avr/include/avr/power.h **** #ifndef _AVR_POWER_H_
  33:/usr/lib/avr/include/avr/power.h **** #define _AVR_POWER_H_   1
  34:/usr/lib/avr/include/avr/power.h **** 
  35:/usr/lib/avr/include/avr/power.h **** #include <avr/io.h>
  36:/usr/lib/avr/include/avr/power.h **** #include <stdint.h>
  37:/usr/lib/avr/include/avr/power.h **** 
  38:/usr/lib/avr/include/avr/power.h **** 
  39:/usr/lib/avr/include/avr/power.h **** /** \file */
  40:/usr/lib/avr/include/avr/power.h **** /** \defgroup avr_power <avr/power.h>: Power Reduction Management
  41:/usr/lib/avr/include/avr/power.h **** 
  42:/usr/lib/avr/include/avr/power.h **** \code #include <avr/power.h>\endcode
  43:/usr/lib/avr/include/avr/power.h **** 
  44:/usr/lib/avr/include/avr/power.h **** Many AVRs contain a Power Reduction Register (PRR) or Registers (PRRx) that 
  45:/usr/lib/avr/include/avr/power.h **** allow you to reduce power consumption by disabling or enabling various on-board 
  46:/usr/lib/avr/include/avr/power.h **** peripherals as needed. Some devices have the XTAL Divide Control Register
  47:/usr/lib/avr/include/avr/power.h **** (XDIV) which offer similar functionality as System Clock Prescale
  48:/usr/lib/avr/include/avr/power.h **** Register (CLKPR).
  49:/usr/lib/avr/include/avr/power.h **** 
  50:/usr/lib/avr/include/avr/power.h **** There are many macros in this header file that provide an easy interface
  51:/usr/lib/avr/include/avr/power.h **** to enable or disable on-board peripherals to reduce power. See the table below.
  52:/usr/lib/avr/include/avr/power.h **** 
  53:/usr/lib/avr/include/avr/power.h **** \note Not all AVR devices have a Power Reduction Register (for example
  54:/usr/lib/avr/include/avr/power.h **** the ATmega8). On those devices without a Power Reduction Register, the
  55:/usr/lib/avr/include/avr/power.h **** power reduction macros are not available..
  56:/usr/lib/avr/include/avr/power.h **** 
  57:/usr/lib/avr/include/avr/power.h **** \note Not all AVR devices contain the same peripherals (for example, the LCD
  58:/usr/lib/avr/include/avr/power.h **** interface), or they will be named differently (for example, USART and 
  59:/usr/lib/avr/include/avr/power.h **** USART0). Please consult your device's datasheet, or the header file, to 
  60:/usr/lib/avr/include/avr/power.h **** find out which macros are applicable to your device.
  61:/usr/lib/avr/include/avr/power.h **** 
  62:/usr/lib/avr/include/avr/power.h **** \note For device using the XTAL Divide Control Register (XDIV), when prescaler
  63:/usr/lib/avr/include/avr/power.h **** is used, Timer/Counter0 can only be used in asynchronous mode. Keep in mind
  64:/usr/lib/avr/include/avr/power.h **** that Timer/Counter0 source shall be less than th of peripheral clock.
  65:/usr/lib/avr/include/avr/power.h **** Therefore, when using a typical 32.768 kHz crystal, one shall not scale
  66:/usr/lib/avr/include/avr/power.h **** the clock below 131.072 kHz.
  67:/usr/lib/avr/include/avr/power.h **** 
  68:/usr/lib/avr/include/avr/power.h **** */
  69:/usr/lib/avr/include/avr/power.h **** 
  70:/usr/lib/avr/include/avr/power.h **** 
  71:/usr/lib/avr/include/avr/power.h **** /** \addtogroup avr_power
  72:/usr/lib/avr/include/avr/power.h **** 
  73:/usr/lib/avr/include/avr/power.h **** \anchor avr_powermacros
  74:/usr/lib/avr/include/avr/power.h **** <small>
  75:/usr/lib/avr/include/avr/power.h **** <center>
  76:/usr/lib/avr/include/avr/power.h **** <table border="3">
  77:/usr/lib/avr/include/avr/power.h ****   <tr>
  78:/usr/lib/avr/include/avr/power.h ****     <td width="10%"><strong>Power Macro</strong></td>
  79:/usr/lib/avr/include/avr/power.h ****     <td width="15%"><strong>Description</strong></td>
  80:/usr/lib/avr/include/avr/power.h ****   </tr>
  81:/usr/lib/avr/include/avr/power.h **** 
  82:/usr/lib/avr/include/avr/power.h ****   <tr>
  83:/usr/lib/avr/include/avr/power.h ****     <td>power_aca_disable()</td>
  84:/usr/lib/avr/include/avr/power.h ****     <td>Disable the Analog Comparator on PortA.</td>
  85:/usr/lib/avr/include/avr/power.h ****   </tr>
  86:/usr/lib/avr/include/avr/power.h **** 
  87:/usr/lib/avr/include/avr/power.h ****   <tr>
  88:/usr/lib/avr/include/avr/power.h ****     <td>power_aca_enable()</td>
  89:/usr/lib/avr/include/avr/power.h ****     <td>Enable the Analog Comparator on PortA.</td>
  90:/usr/lib/avr/include/avr/power.h ****   </tr>
  91:/usr/lib/avr/include/avr/power.h **** 
  92:/usr/lib/avr/include/avr/power.h ****   <tr>
  93:/usr/lib/avr/include/avr/power.h ****     <td>power_adc_enable()</td>
  94:/usr/lib/avr/include/avr/power.h ****     <td>Enable the Analog to Digital Converter module.</td>
  95:/usr/lib/avr/include/avr/power.h ****   </tr>
  96:/usr/lib/avr/include/avr/power.h **** 
  97:/usr/lib/avr/include/avr/power.h ****   <tr>
  98:/usr/lib/avr/include/avr/power.h ****     <td>power_adc_disable()</td>
  99:/usr/lib/avr/include/avr/power.h ****     <td>Disable the Analog to Digital Converter module.</td>
 100:/usr/lib/avr/include/avr/power.h ****   </tr>
 101:/usr/lib/avr/include/avr/power.h **** 
 102:/usr/lib/avr/include/avr/power.h ****   <tr>
 103:/usr/lib/avr/include/avr/power.h ****     <td>power_adca_disable()</td>
 104:/usr/lib/avr/include/avr/power.h ****     <td>Disable the Analog to Digital Converter module on PortA</td>
 105:/usr/lib/avr/include/avr/power.h ****   </tr>
 106:/usr/lib/avr/include/avr/power.h **** 
 107:/usr/lib/avr/include/avr/power.h ****   <tr>
 108:/usr/lib/avr/include/avr/power.h ****     <td>power_adca_enable()</td>
 109:/usr/lib/avr/include/avr/power.h ****     <td>Enable the Analog to Digital Converter module on PortA</td>
 110:/usr/lib/avr/include/avr/power.h ****   </tr>
 111:/usr/lib/avr/include/avr/power.h **** 
 112:/usr/lib/avr/include/avr/power.h ****   <tr>
 113:/usr/lib/avr/include/avr/power.h ****     <td>power_evsys_disable()</td>
 114:/usr/lib/avr/include/avr/power.h ****     <td>Disable the EVSYS module</td>
 115:/usr/lib/avr/include/avr/power.h ****   </tr>
 116:/usr/lib/avr/include/avr/power.h **** 
 117:/usr/lib/avr/include/avr/power.h ****   <tr>
 118:/usr/lib/avr/include/avr/power.h ****     <td>power_evsys_enable()</td>
 119:/usr/lib/avr/include/avr/power.h ****     <td>Enable the EVSYS module</td>
 120:/usr/lib/avr/include/avr/power.h ****   </tr>
 121:/usr/lib/avr/include/avr/power.h **** 
 122:/usr/lib/avr/include/avr/power.h ****   <tr>
 123:/usr/lib/avr/include/avr/power.h ****     <td>power_hiresc_disable()</td>
 124:/usr/lib/avr/include/avr/power.h ****     <td>Disable the HIRES module on PortC</td>
 125:/usr/lib/avr/include/avr/power.h ****   </tr>
 126:/usr/lib/avr/include/avr/power.h **** 
 127:/usr/lib/avr/include/avr/power.h ****   <tr>
 128:/usr/lib/avr/include/avr/power.h ****     <td>power_hiresc_enable()</td>
 129:/usr/lib/avr/include/avr/power.h ****     <td>Enable the HIRES module on PortC</td>
 130:/usr/lib/avr/include/avr/power.h ****   </tr>
 131:/usr/lib/avr/include/avr/power.h **** 
 132:/usr/lib/avr/include/avr/power.h ****    <tr>
 133:/usr/lib/avr/include/avr/power.h ****     <td>power_lcd_enable()</td>
 134:/usr/lib/avr/include/avr/power.h ****     <td>Enable the LCD module.</td>
 135:/usr/lib/avr/include/avr/power.h ****   </tr>
 136:/usr/lib/avr/include/avr/power.h **** 
 137:/usr/lib/avr/include/avr/power.h ****   <tr>
 138:/usr/lib/avr/include/avr/power.h ****     <td>power_lcd_disable().</td>
 139:/usr/lib/avr/include/avr/power.h ****     <td>Disable the LCD module.</td>
 140:/usr/lib/avr/include/avr/power.h ****   </tr>
 141:/usr/lib/avr/include/avr/power.h **** 
 142:/usr/lib/avr/include/avr/power.h ****   <tr>
 143:/usr/lib/avr/include/avr/power.h ****     <td>power_pga_enable()</td>
 144:/usr/lib/avr/include/avr/power.h ****     <td>Enable the Programmable Gain Amplifier module.</td>
 145:/usr/lib/avr/include/avr/power.h ****   </tr>
 146:/usr/lib/avr/include/avr/power.h **** 
 147:/usr/lib/avr/include/avr/power.h ****   <tr>
 148:/usr/lib/avr/include/avr/power.h ****     <td>power_pga_disable()</td>
 149:/usr/lib/avr/include/avr/power.h ****     <td>Disable the Programmable Gain Amplifier module.</td>
 150:/usr/lib/avr/include/avr/power.h ****   </tr>
 151:/usr/lib/avr/include/avr/power.h ****   
 152:/usr/lib/avr/include/avr/power.h ****   <tr>
 153:/usr/lib/avr/include/avr/power.h ****     <td>power_pscr_enable()</td>
 154:/usr/lib/avr/include/avr/power.h ****     <td>Enable the Reduced Power Stage Controller module.</td>
 155:/usr/lib/avr/include/avr/power.h ****   </tr>
 156:/usr/lib/avr/include/avr/power.h **** 
 157:/usr/lib/avr/include/avr/power.h ****   <tr>
 158:/usr/lib/avr/include/avr/power.h ****     <td>power_pscr_disable()</td>
 159:/usr/lib/avr/include/avr/power.h ****     <td>Disable the Reduced Power Stage Controller module.</td>
 160:/usr/lib/avr/include/avr/power.h ****   </tr>
 161:/usr/lib/avr/include/avr/power.h **** 
 162:/usr/lib/avr/include/avr/power.h ****   <tr>
 163:/usr/lib/avr/include/avr/power.h ****     <td>power_psc0_enable()</td>
 164:/usr/lib/avr/include/avr/power.h ****     <td>Enable the Power Stage Controller 0 module.</td>
 165:/usr/lib/avr/include/avr/power.h ****   </tr>
 166:/usr/lib/avr/include/avr/power.h **** 
 167:/usr/lib/avr/include/avr/power.h ****   <tr>
 168:/usr/lib/avr/include/avr/power.h ****     <td>power_psc0_disable()</td>
 169:/usr/lib/avr/include/avr/power.h ****     <td>Disable the Power Stage Controller 0 module.</td>
 170:/usr/lib/avr/include/avr/power.h ****   </tr>
 171:/usr/lib/avr/include/avr/power.h **** 
 172:/usr/lib/avr/include/avr/power.h ****   <tr>
 173:/usr/lib/avr/include/avr/power.h ****     <td>power_psc1_enable()</td>
 174:/usr/lib/avr/include/avr/power.h ****     <td>Enable the Power Stage Controller 1 module.</td>
 175:/usr/lib/avr/include/avr/power.h ****   </tr>
 176:/usr/lib/avr/include/avr/power.h **** 
 177:/usr/lib/avr/include/avr/power.h ****   <tr>
 178:/usr/lib/avr/include/avr/power.h ****     <td>power_psc1_disable()</td>
 179:/usr/lib/avr/include/avr/power.h ****     <td>Disable the Power Stage Controller 1 module.</td>
 180:/usr/lib/avr/include/avr/power.h ****   </tr>
 181:/usr/lib/avr/include/avr/power.h **** 
 182:/usr/lib/avr/include/avr/power.h ****   <tr>
 183:/usr/lib/avr/include/avr/power.h ****     <td>power_psc2_enable()</td>
 184:/usr/lib/avr/include/avr/power.h ****     <td>Enable the Power Stage Controller 2 module.</td>
 185:/usr/lib/avr/include/avr/power.h ****   </tr>
 186:/usr/lib/avr/include/avr/power.h **** 
 187:/usr/lib/avr/include/avr/power.h ****   <tr>
 188:/usr/lib/avr/include/avr/power.h ****     <td>power_psc2_disable()</td>
 189:/usr/lib/avr/include/avr/power.h ****     <td>Disable the Power Stage Controller 2 module.</td>
 190:/usr/lib/avr/include/avr/power.h ****   </tr>
 191:/usr/lib/avr/include/avr/power.h **** 
 192:/usr/lib/avr/include/avr/power.h ****   <tr>
 193:/usr/lib/avr/include/avr/power.h ****     <td>power_ram0_enable()</td>
 194:/usr/lib/avr/include/avr/power.h ****     <td>Enable the SRAM block 0 .</td>
 195:/usr/lib/avr/include/avr/power.h ****   </tr>
 196:/usr/lib/avr/include/avr/power.h **** 
 197:/usr/lib/avr/include/avr/power.h ****   <tr>
 198:/usr/lib/avr/include/avr/power.h ****     <td>power_ram0_disable()</td>
 199:/usr/lib/avr/include/avr/power.h ****     <td>Disable the SRAM block 0. </td>
 200:/usr/lib/avr/include/avr/power.h ****   </tr>
 201:/usr/lib/avr/include/avr/power.h **** 
 202:/usr/lib/avr/include/avr/power.h ****   <tr>
 203:/usr/lib/avr/include/avr/power.h ****     <td>power_ram1_enable()</td>
 204:/usr/lib/avr/include/avr/power.h ****     <td>Enable the SRAM block 1 .</td>
 205:/usr/lib/avr/include/avr/power.h ****   </tr>
 206:/usr/lib/avr/include/avr/power.h **** 
 207:/usr/lib/avr/include/avr/power.h ****   <tr>
 208:/usr/lib/avr/include/avr/power.h ****     <td>power_ram1_disable()</td>
 209:/usr/lib/avr/include/avr/power.h ****     <td>Disable the SRAM block 1. </td>
 210:/usr/lib/avr/include/avr/power.h ****   </tr>
 211:/usr/lib/avr/include/avr/power.h **** 
 212:/usr/lib/avr/include/avr/power.h ****   <tr>
 213:/usr/lib/avr/include/avr/power.h ****     <td>power_ram2_enable()</td>
 214:/usr/lib/avr/include/avr/power.h ****     <td>Enable the SRAM block 2 .</td>
 215:/usr/lib/avr/include/avr/power.h ****   </tr>
 216:/usr/lib/avr/include/avr/power.h **** 
 217:/usr/lib/avr/include/avr/power.h ****   <tr>
 218:/usr/lib/avr/include/avr/power.h ****     <td>power_ram2_disable()</td>
 219:/usr/lib/avr/include/avr/power.h ****     <td>Disable the SRAM block 2. </td>
 220:/usr/lib/avr/include/avr/power.h ****   </tr>
 221:/usr/lib/avr/include/avr/power.h **** 
 222:/usr/lib/avr/include/avr/power.h ****   <tr>
 223:/usr/lib/avr/include/avr/power.h ****     <td>power_ram3_enable()</td>
 224:/usr/lib/avr/include/avr/power.h ****     <td>Enable the SRAM block 3 .</td>
 225:/usr/lib/avr/include/avr/power.h ****   </tr>
 226:/usr/lib/avr/include/avr/power.h **** 
 227:/usr/lib/avr/include/avr/power.h ****   <tr>
 228:/usr/lib/avr/include/avr/power.h ****     <td>power_ram3_disable()</td>
 229:/usr/lib/avr/include/avr/power.h ****     <td>Disable the SRAM block 3. </td>
 230:/usr/lib/avr/include/avr/power.h ****   </tr>
 231:/usr/lib/avr/include/avr/power.h **** 
 232:/usr/lib/avr/include/avr/power.h ****   <tr>
 233:/usr/lib/avr/include/avr/power.h ****     <td>power_rtc_disable()</td>
 234:/usr/lib/avr/include/avr/power.h ****     <td>Disable the RTC module</td>
 235:/usr/lib/avr/include/avr/power.h ****   </tr>
 236:/usr/lib/avr/include/avr/power.h **** 
 237:/usr/lib/avr/include/avr/power.h ****   <tr>
 238:/usr/lib/avr/include/avr/power.h ****     <td>power_rtc_enable()</td>
 239:/usr/lib/avr/include/avr/power.h ****     <td>Enable the RTC module</td>
 240:/usr/lib/avr/include/avr/power.h ****   </tr>
 241:/usr/lib/avr/include/avr/power.h **** 
 242:/usr/lib/avr/include/avr/power.h ****   <tr>
 243:/usr/lib/avr/include/avr/power.h ****     <td>power_spi_enable()</td>
 244:/usr/lib/avr/include/avr/power.h ****     <td>Enable the Serial Peripheral Interface module.</td>
 245:/usr/lib/avr/include/avr/power.h ****   </tr>
 246:/usr/lib/avr/include/avr/power.h **** 
 247:/usr/lib/avr/include/avr/power.h ****   <tr>
 248:/usr/lib/avr/include/avr/power.h ****     <td>power_spi_disable()</td>
 249:/usr/lib/avr/include/avr/power.h ****     <td>Disable the Serial Peripheral Interface module.</td>
 250:/usr/lib/avr/include/avr/power.h ****   </tr>
 251:/usr/lib/avr/include/avr/power.h **** 
 252:/usr/lib/avr/include/avr/power.h ****   <tr>
 253:/usr/lib/avr/include/avr/power.h ****     <td>power_spic_disable()</td>
 254:/usr/lib/avr/include/avr/power.h ****     <td>Disable the SPI module on PortC</td>
 255:/usr/lib/avr/include/avr/power.h ****   </tr>
 256:/usr/lib/avr/include/avr/power.h **** 
 257:/usr/lib/avr/include/avr/power.h ****   <tr>
 258:/usr/lib/avr/include/avr/power.h ****     <td>power_spic_enable()</td>
 259:/usr/lib/avr/include/avr/power.h ****     <td>Enable the SPI module on PortC</td>
 260:/usr/lib/avr/include/avr/power.h ****   </tr>
 261:/usr/lib/avr/include/avr/power.h **** 
 262:/usr/lib/avr/include/avr/power.h ****   <tr>
 263:/usr/lib/avr/include/avr/power.h ****     <td>power_spid_disable()</td>
 264:/usr/lib/avr/include/avr/power.h ****     <td>Disable the SPI module on PortD</td>
 265:/usr/lib/avr/include/avr/power.h ****   </tr>
 266:/usr/lib/avr/include/avr/power.h **** 
 267:/usr/lib/avr/include/avr/power.h ****   <tr>
 268:/usr/lib/avr/include/avr/power.h ****     <td>power_spid_enable()</td>
 269:/usr/lib/avr/include/avr/power.h ****     <td>Enable the SPI module on PortD</td>
 270:/usr/lib/avr/include/avr/power.h ****   </tr>
 271:/usr/lib/avr/include/avr/power.h **** 
 272:/usr/lib/avr/include/avr/power.h ****   <tr>
 273:/usr/lib/avr/include/avr/power.h ****     <td>power_tc0c_disable()</td>
 274:/usr/lib/avr/include/avr/power.h ****     <td>Disable the TC0 module on PortC</td>
 275:/usr/lib/avr/include/avr/power.h ****   </tr>
 276:/usr/lib/avr/include/avr/power.h **** 
 277:/usr/lib/avr/include/avr/power.h ****   <tr>
 278:/usr/lib/avr/include/avr/power.h ****     <td>power_tc0c_enable()</td>
 279:/usr/lib/avr/include/avr/power.h ****     <td>Enable the TC0 module on PortC</td>
 280:/usr/lib/avr/include/avr/power.h ****   </tr>
 281:/usr/lib/avr/include/avr/power.h **** 
 282:/usr/lib/avr/include/avr/power.h ****   <tr>
 283:/usr/lib/avr/include/avr/power.h ****     <td>power_tc0d_disable()</td>
 284:/usr/lib/avr/include/avr/power.h ****     <td>Disable the TC0 module on PortD</td>
 285:/usr/lib/avr/include/avr/power.h ****   </tr>
 286:/usr/lib/avr/include/avr/power.h **** 
 287:/usr/lib/avr/include/avr/power.h ****   <tr>
 288:/usr/lib/avr/include/avr/power.h ****     <td>power_tc0d_enable()</td>
 289:/usr/lib/avr/include/avr/power.h ****     <td>Enable the TC0 module on PortD</td>
 290:/usr/lib/avr/include/avr/power.h ****   </tr>
 291:/usr/lib/avr/include/avr/power.h **** 
 292:/usr/lib/avr/include/avr/power.h ****   <tr>
 293:/usr/lib/avr/include/avr/power.h ****     <td>power_tc0e_disable()</td>
 294:/usr/lib/avr/include/avr/power.h ****     <td>Disable the TC0 module on PortE</td>
 295:/usr/lib/avr/include/avr/power.h ****   </tr>
 296:/usr/lib/avr/include/avr/power.h **** 
 297:/usr/lib/avr/include/avr/power.h ****   <tr>
 298:/usr/lib/avr/include/avr/power.h ****     <td>power_tc0e_enable()</td>
 299:/usr/lib/avr/include/avr/power.h ****     <td>Enable the TC0 module on PortE</td>
 300:/usr/lib/avr/include/avr/power.h ****   </tr>
 301:/usr/lib/avr/include/avr/power.h **** 
 302:/usr/lib/avr/include/avr/power.h ****   <tr>
 303:/usr/lib/avr/include/avr/power.h ****     <td>power_tc0f_disable()</td>
 304:/usr/lib/avr/include/avr/power.h ****     <td>Disable the TC0 module on PortF</td>
 305:/usr/lib/avr/include/avr/power.h ****   </tr>
 306:/usr/lib/avr/include/avr/power.h **** 
 307:/usr/lib/avr/include/avr/power.h ****   <tr>
 308:/usr/lib/avr/include/avr/power.h ****     <td>power_tc0f_enable()</td>
 309:/usr/lib/avr/include/avr/power.h ****     <td>Enable the TC0 module on PortF</td>
 310:/usr/lib/avr/include/avr/power.h ****   </tr>
 311:/usr/lib/avr/include/avr/power.h **** 
 312:/usr/lib/avr/include/avr/power.h ****   <tr>
 313:/usr/lib/avr/include/avr/power.h ****     <td>power_tc1c_disable()</td>
 314:/usr/lib/avr/include/avr/power.h ****     <td>Disable the TC1 module on PortC</td>
 315:/usr/lib/avr/include/avr/power.h ****   </tr>
 316:/usr/lib/avr/include/avr/power.h **** 
 317:/usr/lib/avr/include/avr/power.h ****   <tr>
 318:/usr/lib/avr/include/avr/power.h ****     <td>power_tc1c_enable()</td>
 319:/usr/lib/avr/include/avr/power.h ****     <td>Enable the TC1 module on PortC</td>
 320:/usr/lib/avr/include/avr/power.h ****   </tr>
 321:/usr/lib/avr/include/avr/power.h **** 
 322:/usr/lib/avr/include/avr/power.h ****   <tr>
 323:/usr/lib/avr/include/avr/power.h ****     <td>power_twic_disable()</td>
 324:/usr/lib/avr/include/avr/power.h ****     <td>Disable the Two Wire Interface module on PortC</td>
 325:/usr/lib/avr/include/avr/power.h ****   </tr>
 326:/usr/lib/avr/include/avr/power.h **** 
 327:/usr/lib/avr/include/avr/power.h ****   <tr>
 328:/usr/lib/avr/include/avr/power.h ****     <td>power_twic_enable()</td>
 329:/usr/lib/avr/include/avr/power.h ****     <td>Enable the Two Wire Interface module on PortC</td>
 330:/usr/lib/avr/include/avr/power.h ****   </tr>
 331:/usr/lib/avr/include/avr/power.h **** 
 332:/usr/lib/avr/include/avr/power.h ****   <tr>
 333:/usr/lib/avr/include/avr/power.h ****     <td>power_twie_disable()</td>
 334:/usr/lib/avr/include/avr/power.h ****     <td>Disable the Two Wire Interface module on PortE</td>
 335:/usr/lib/avr/include/avr/power.h ****   </tr>
 336:/usr/lib/avr/include/avr/power.h **** 
 337:/usr/lib/avr/include/avr/power.h ****   <tr>
 338:/usr/lib/avr/include/avr/power.h ****     <td>power_twie_enable()</td>
 339:/usr/lib/avr/include/avr/power.h ****     <td>Enable the Two Wire Interface module on PortE</td>
 340:/usr/lib/avr/include/avr/power.h ****   </tr>
 341:/usr/lib/avr/include/avr/power.h **** 
 342:/usr/lib/avr/include/avr/power.h ****   <tr>
 343:/usr/lib/avr/include/avr/power.h ****     <td>power_timer0_enable()</td>
 344:/usr/lib/avr/include/avr/power.h ****     <td>Enable the Timer 0 module.</td>
 345:/usr/lib/avr/include/avr/power.h ****   </tr>
 346:/usr/lib/avr/include/avr/power.h **** 
 347:/usr/lib/avr/include/avr/power.h ****   <tr>
 348:/usr/lib/avr/include/avr/power.h ****     <td>power_timer0_disable()</td>
 349:/usr/lib/avr/include/avr/power.h ****     <td>Disable the Timer 0 module.</td>
 350:/usr/lib/avr/include/avr/power.h ****   </tr>
 351:/usr/lib/avr/include/avr/power.h **** 
 352:/usr/lib/avr/include/avr/power.h ****   <tr>
 353:/usr/lib/avr/include/avr/power.h ****     <td>power_timer1_enable()</td>
 354:/usr/lib/avr/include/avr/power.h ****     <td>Enable the Timer 1 module.</td>
 355:/usr/lib/avr/include/avr/power.h ****   </tr>
 356:/usr/lib/avr/include/avr/power.h **** 
 357:/usr/lib/avr/include/avr/power.h ****   <tr>
 358:/usr/lib/avr/include/avr/power.h ****     <td>power_timer1_disable()</td>
 359:/usr/lib/avr/include/avr/power.h ****     <td>Disable the Timer 1 module.</td>
 360:/usr/lib/avr/include/avr/power.h ****   </tr>
 361:/usr/lib/avr/include/avr/power.h **** 
 362:/usr/lib/avr/include/avr/power.h ****   <tr>
 363:/usr/lib/avr/include/avr/power.h ****     <td>power_timer2_enable()</td>
 364:/usr/lib/avr/include/avr/power.h ****     <td>Enable the Timer 2 module.</td>
 365:/usr/lib/avr/include/avr/power.h ****   </tr>
 366:/usr/lib/avr/include/avr/power.h **** 
 367:/usr/lib/avr/include/avr/power.h ****   <tr>
 368:/usr/lib/avr/include/avr/power.h ****     <td>power_timer2_disable()</td>
 369:/usr/lib/avr/include/avr/power.h ****     <td>Disable the Timer 2 module.</td>
 370:/usr/lib/avr/include/avr/power.h ****   </tr>
 371:/usr/lib/avr/include/avr/power.h **** 
 372:/usr/lib/avr/include/avr/power.h ****   <tr>
 373:/usr/lib/avr/include/avr/power.h ****     <td>power_timer3_enable()</td>
 374:/usr/lib/avr/include/avr/power.h ****     <td>Enable the Timer 3 module.</td>
 375:/usr/lib/avr/include/avr/power.h ****   </tr>
 376:/usr/lib/avr/include/avr/power.h **** 
 377:/usr/lib/avr/include/avr/power.h ****   <tr>
 378:/usr/lib/avr/include/avr/power.h ****     <td>power_timer3_disable()</td>
 379:/usr/lib/avr/include/avr/power.h ****     <td>Disable the Timer 3 module.</td>
 380:/usr/lib/avr/include/avr/power.h ****   </tr>
 381:/usr/lib/avr/include/avr/power.h **** 
 382:/usr/lib/avr/include/avr/power.h ****   <tr>
 383:/usr/lib/avr/include/avr/power.h ****     <td>power_timer4_enable()</td>
 384:/usr/lib/avr/include/avr/power.h ****     <td>Enable the Timer 4 module.</td>
 385:/usr/lib/avr/include/avr/power.h ****   </tr>
 386:/usr/lib/avr/include/avr/power.h **** 
 387:/usr/lib/avr/include/avr/power.h ****   <tr>
 388:/usr/lib/avr/include/avr/power.h ****     <td>power_timer4_disable()</td>
 389:/usr/lib/avr/include/avr/power.h ****     <td>Disable the Timer 4 module.</td>
 390:/usr/lib/avr/include/avr/power.h ****   </tr>
 391:/usr/lib/avr/include/avr/power.h **** 
 392:/usr/lib/avr/include/avr/power.h ****   <tr>
 393:/usr/lib/avr/include/avr/power.h ****     <td>power_timer5_enable()</td>
 394:/usr/lib/avr/include/avr/power.h ****     <td>Enable the Timer 5 module.</td>
 395:/usr/lib/avr/include/avr/power.h ****   </tr>
 396:/usr/lib/avr/include/avr/power.h **** 
 397:/usr/lib/avr/include/avr/power.h ****   <tr>
 398:/usr/lib/avr/include/avr/power.h ****     <td>power_timer5_disable()</td>
 399:/usr/lib/avr/include/avr/power.h ****     <td>Disable the Timer 5 module.</td>
 400:/usr/lib/avr/include/avr/power.h ****   </tr>
 401:/usr/lib/avr/include/avr/power.h **** 
 402:/usr/lib/avr/include/avr/power.h ****   <tr>
 403:/usr/lib/avr/include/avr/power.h ****     <td>power_twi_enable()</td>
 404:/usr/lib/avr/include/avr/power.h ****     <td>Enable the Two Wire Interface module.</td>
 405:/usr/lib/avr/include/avr/power.h ****   </tr>
 406:/usr/lib/avr/include/avr/power.h **** 
 407:/usr/lib/avr/include/avr/power.h ****   <tr>
 408:/usr/lib/avr/include/avr/power.h ****     <td>power_twi_disable()</td>
 409:/usr/lib/avr/include/avr/power.h ****     <td>Disable the Two Wire Interface module.</td>
 410:/usr/lib/avr/include/avr/power.h ****   </tr>
 411:/usr/lib/avr/include/avr/power.h **** 
 412:/usr/lib/avr/include/avr/power.h ****   <tr>
 413:/usr/lib/avr/include/avr/power.h ****     <td>power_usart_enable()</td>
 414:/usr/lib/avr/include/avr/power.h ****     <td>Enable the USART module.</td>
 415:/usr/lib/avr/include/avr/power.h ****   </tr>
 416:/usr/lib/avr/include/avr/power.h **** 
 417:/usr/lib/avr/include/avr/power.h ****   <tr>
 418:/usr/lib/avr/include/avr/power.h ****     <td>power_usart_disable()</td>
 419:/usr/lib/avr/include/avr/power.h ****     <td>Disable the USART module.</td>
 420:/usr/lib/avr/include/avr/power.h ****   </tr>
 421:/usr/lib/avr/include/avr/power.h **** 
 422:/usr/lib/avr/include/avr/power.h ****   <tr>
 423:/usr/lib/avr/include/avr/power.h ****     <td>power_usart0_enable()</td>
 424:/usr/lib/avr/include/avr/power.h ****     <td>Enable the USART 0 module.</td>
 425:/usr/lib/avr/include/avr/power.h ****   </tr>
 426:/usr/lib/avr/include/avr/power.h **** 
 427:/usr/lib/avr/include/avr/power.h ****   <tr>
 428:/usr/lib/avr/include/avr/power.h ****     <td>power_usart0_disable()</td>
 429:/usr/lib/avr/include/avr/power.h ****     <td>Disable the USART 0 module.</td>
 430:/usr/lib/avr/include/avr/power.h ****   </tr>
 431:/usr/lib/avr/include/avr/power.h **** 
 432:/usr/lib/avr/include/avr/power.h ****   <tr>
 433:/usr/lib/avr/include/avr/power.h ****     <td>power_usart1_enable()</td>
 434:/usr/lib/avr/include/avr/power.h ****     <td>Enable the USART 1 module.</td>
 435:/usr/lib/avr/include/avr/power.h ****   </tr>
 436:/usr/lib/avr/include/avr/power.h **** 
 437:/usr/lib/avr/include/avr/power.h ****   <tr>
 438:/usr/lib/avr/include/avr/power.h ****     <td>power_usart1_disable()</td>
 439:/usr/lib/avr/include/avr/power.h ****     <td>Disable the USART 1 module.</td>
 440:/usr/lib/avr/include/avr/power.h ****   </tr>
 441:/usr/lib/avr/include/avr/power.h **** 
 442:/usr/lib/avr/include/avr/power.h ****   <tr>
 443:/usr/lib/avr/include/avr/power.h ****     <td>power_usart2_enable()</td>
 444:/usr/lib/avr/include/avr/power.h ****     <td>Enable the USART 2 module.</td>
 445:/usr/lib/avr/include/avr/power.h ****   </tr>
 446:/usr/lib/avr/include/avr/power.h **** 
 447:/usr/lib/avr/include/avr/power.h ****   <tr>
 448:/usr/lib/avr/include/avr/power.h ****     <td>power_usart2_disable()</td>
 449:/usr/lib/avr/include/avr/power.h ****     <td>Disable the USART 2 module.</td>
 450:/usr/lib/avr/include/avr/power.h ****   </tr>
 451:/usr/lib/avr/include/avr/power.h **** 
 452:/usr/lib/avr/include/avr/power.h ****   <tr>
 453:/usr/lib/avr/include/avr/power.h ****     <td>power_usart3_enable()</td>
 454:/usr/lib/avr/include/avr/power.h ****     <td>Enable the USART 3 module.</td>
 455:/usr/lib/avr/include/avr/power.h ****   </tr>
 456:/usr/lib/avr/include/avr/power.h **** 
 457:/usr/lib/avr/include/avr/power.h ****   <tr>
 458:/usr/lib/avr/include/avr/power.h ****     <td>power_usart3_disable()</td>
 459:/usr/lib/avr/include/avr/power.h ****     <td>Disable the USART 3 module.</td>
 460:/usr/lib/avr/include/avr/power.h ****   </tr>
 461:/usr/lib/avr/include/avr/power.h **** 
 462:/usr/lib/avr/include/avr/power.h ****   <tr>
 463:/usr/lib/avr/include/avr/power.h ****     <td>power_usartc0_disable()</td>
 464:/usr/lib/avr/include/avr/power.h ****     <td> Disable the USART0 module on PortC</td>
 465:/usr/lib/avr/include/avr/power.h ****   </tr>
 466:/usr/lib/avr/include/avr/power.h **** 
 467:/usr/lib/avr/include/avr/power.h ****   <tr>
 468:/usr/lib/avr/include/avr/power.h ****     <td>power_usartc0_enable()</td>
 469:/usr/lib/avr/include/avr/power.h ****     <td> Enable the USART0 module on PortC</td>
 470:/usr/lib/avr/include/avr/power.h ****   </tr>
 471:/usr/lib/avr/include/avr/power.h **** 
 472:/usr/lib/avr/include/avr/power.h ****   <tr>
 473:/usr/lib/avr/include/avr/power.h ****     <td>power_usartd0_disable()</td>
 474:/usr/lib/avr/include/avr/power.h ****     <td> Disable the USART0 module on PortD</td>
 475:/usr/lib/avr/include/avr/power.h ****   </tr>
 476:/usr/lib/avr/include/avr/power.h **** 
 477:/usr/lib/avr/include/avr/power.h ****   <tr>
 478:/usr/lib/avr/include/avr/power.h ****     <td>power_usartd0_enable()</td>
 479:/usr/lib/avr/include/avr/power.h ****     <td> Enable the USART0 module on PortD</td>
 480:/usr/lib/avr/include/avr/power.h ****   </tr>
 481:/usr/lib/avr/include/avr/power.h **** 
 482:/usr/lib/avr/include/avr/power.h ****   <tr>
 483:/usr/lib/avr/include/avr/power.h ****     <td>power_usarte0_disable()</td>
 484:/usr/lib/avr/include/avr/power.h ****     <td> Disable the USART0 module on PortE</td>
 485:/usr/lib/avr/include/avr/power.h ****   </tr>
 486:/usr/lib/avr/include/avr/power.h **** 
 487:/usr/lib/avr/include/avr/power.h ****   <tr>
 488:/usr/lib/avr/include/avr/power.h ****     <td>power_usarte0_enable()</td>
 489:/usr/lib/avr/include/avr/power.h ****     <td> Enable the USART0 module on PortE</td>
 490:/usr/lib/avr/include/avr/power.h ****   </tr>
 491:/usr/lib/avr/include/avr/power.h **** 
 492:/usr/lib/avr/include/avr/power.h ****   <tr>
 493:/usr/lib/avr/include/avr/power.h ****     <td>power_usartf0_disable()</td>
 494:/usr/lib/avr/include/avr/power.h ****     <td> Disable the USART0 module on PortF</td>
 495:/usr/lib/avr/include/avr/power.h ****   </tr>
 496:/usr/lib/avr/include/avr/power.h **** 
 497:/usr/lib/avr/include/avr/power.h ****   <tr>
 498:/usr/lib/avr/include/avr/power.h ****     <td>power_usartf0_enable()</td>
 499:/usr/lib/avr/include/avr/power.h ****     <td> Enable the USART0 module on PortF</td>
 500:/usr/lib/avr/include/avr/power.h ****   </tr>
 501:/usr/lib/avr/include/avr/power.h **** 
 502:/usr/lib/avr/include/avr/power.h ****   <tr>
 503:/usr/lib/avr/include/avr/power.h ****     <td>power_usb_enable()</td>
 504:/usr/lib/avr/include/avr/power.h ****     <td>Enable the USB module.</td>
 505:/usr/lib/avr/include/avr/power.h ****   </tr>
 506:/usr/lib/avr/include/avr/power.h **** 
 507:/usr/lib/avr/include/avr/power.h ****   <tr>
 508:/usr/lib/avr/include/avr/power.h ****     <td>power_usb_disable()</td>
 509:/usr/lib/avr/include/avr/power.h ****     <td>Disable the USB module.</td>
 510:/usr/lib/avr/include/avr/power.h ****   </tr>
 511:/usr/lib/avr/include/avr/power.h **** 
 512:/usr/lib/avr/include/avr/power.h ****   <tr>
 513:/usr/lib/avr/include/avr/power.h ****     <td>power_usi_enable()</td>
 514:/usr/lib/avr/include/avr/power.h ****     <td>Enable the Universal Serial Interface module.</td>
 515:/usr/lib/avr/include/avr/power.h ****   </tr>
 516:/usr/lib/avr/include/avr/power.h **** 
 517:/usr/lib/avr/include/avr/power.h ****   <tr>
 518:/usr/lib/avr/include/avr/power.h ****     <td>power_usi_disable()</td>
 519:/usr/lib/avr/include/avr/power.h ****     <td>Disable the Universal Serial Interface module.</td>
 520:/usr/lib/avr/include/avr/power.h ****   </tr>
 521:/usr/lib/avr/include/avr/power.h **** 
 522:/usr/lib/avr/include/avr/power.h ****   <tr>
 523:/usr/lib/avr/include/avr/power.h ****     <td>power_vadc_enable()</td>
 524:/usr/lib/avr/include/avr/power.h ****     <td>Enable the Voltage ADC module.</td>
 525:/usr/lib/avr/include/avr/power.h ****   </tr>
 526:/usr/lib/avr/include/avr/power.h **** 
 527:/usr/lib/avr/include/avr/power.h ****   <tr>
 528:/usr/lib/avr/include/avr/power.h ****     <td>power_vadc_disable()</td>
 529:/usr/lib/avr/include/avr/power.h ****     <td>Disable the Voltage ADC module.</td>
 530:/usr/lib/avr/include/avr/power.h ****   </tr>
 531:/usr/lib/avr/include/avr/power.h **** 
 532:/usr/lib/avr/include/avr/power.h ****   <tr>
 533:/usr/lib/avr/include/avr/power.h ****     <td>power_all_enable()</td>
 534:/usr/lib/avr/include/avr/power.h ****     <td>Enable all modules.</td>
 535:/usr/lib/avr/include/avr/power.h ****   </tr>
 536:/usr/lib/avr/include/avr/power.h **** 
 537:/usr/lib/avr/include/avr/power.h ****   <tr>
 538:/usr/lib/avr/include/avr/power.h ****     <td>power_all_disable()</td>
 539:/usr/lib/avr/include/avr/power.h ****     <td>Disable all modules.</td>
 540:/usr/lib/avr/include/avr/power.h ****   </tr>
 541:/usr/lib/avr/include/avr/power.h **** </table>
 542:/usr/lib/avr/include/avr/power.h **** </center>
 543:/usr/lib/avr/include/avr/power.h **** </small>
 544:/usr/lib/avr/include/avr/power.h **** 
 545:/usr/lib/avr/include/avr/power.h **** @} */
 546:/usr/lib/avr/include/avr/power.h **** 
 547:/usr/lib/avr/include/avr/power.h **** #if defined(__AVR_HAVE_PRR_PRADC)
 548:/usr/lib/avr/include/avr/power.h **** #define power_adc_enable()      (PRR &= (uint8_t)~(1 << PRADC))
 549:/usr/lib/avr/include/avr/power.h **** #define power_adc_disable()     (PRR |= (uint8_t)(1 << PRADC))
 550:/usr/lib/avr/include/avr/power.h **** #endif
 551:/usr/lib/avr/include/avr/power.h **** 
 552:/usr/lib/avr/include/avr/power.h **** #if defined(__AVR_HAVE_PRR_PRCAN)
 553:/usr/lib/avr/include/avr/power.h **** #define power_can_enable()      (PRR &= (uint8_t)~(1 << PRCAN))
 554:/usr/lib/avr/include/avr/power.h **** #define power_can_disable()     (PRR |= (uint8_t)(1 << PRCAN))
 555:/usr/lib/avr/include/avr/power.h **** #endif
 556:/usr/lib/avr/include/avr/power.h **** 
 557:/usr/lib/avr/include/avr/power.h **** #if defined(__AVR_HAVE_PRR_PRLCD)
 558:/usr/lib/avr/include/avr/power.h **** #define power_lcd_enable()      (PRR &= (uint8_t)~(1 << PRLCD))
 559:/usr/lib/avr/include/avr/power.h **** #define power_lcd_disable()     (PRR |= (uint8_t)(1 << PRLCD))
 560:/usr/lib/avr/include/avr/power.h **** #endif
 561:/usr/lib/avr/include/avr/power.h **** 
 562:/usr/lib/avr/include/avr/power.h **** #if defined(__AVR_HAVE_PRR_PRLIN)
 563:/usr/lib/avr/include/avr/power.h **** #define power_lin_enable()      (PRR &= (uint8_t)~(1 << PRLIN))
 564:/usr/lib/avr/include/avr/power.h **** #define power_lin_disable()     (PRR |= (uint8_t)(1 << PRLIN))
 565:/usr/lib/avr/include/avr/power.h **** #endif
 566:/usr/lib/avr/include/avr/power.h **** 
 567:/usr/lib/avr/include/avr/power.h **** #if defined(__AVR_HAVE_PRR_PRPSC)
 568:/usr/lib/avr/include/avr/power.h **** #define power_psc_enable()      (PRR &= (uint8_t)~(1 << PRPSC))
 569:/usr/lib/avr/include/avr/power.h **** #define power_psc_disable()     (PRR |= (uint8_t)(1 << PRPSC))
 570:/usr/lib/avr/include/avr/power.h **** #endif
 571:/usr/lib/avr/include/avr/power.h **** 
 572:/usr/lib/avr/include/avr/power.h **** #if defined(__AVR_HAVE_PRR_PRPSC0)
 573:/usr/lib/avr/include/avr/power.h **** #define power_psc0_enable()     (PRR &= (uint8_t)~(1 << PRPSC0))
 574:/usr/lib/avr/include/avr/power.h **** #define power_psc0_disable()    (PRR |= (uint8_t)(1 << PRPSC0))
 575:/usr/lib/avr/include/avr/power.h **** #endif
 576:/usr/lib/avr/include/avr/power.h **** 
 577:/usr/lib/avr/include/avr/power.h **** #if defined(__AVR_HAVE_PRR_PRPSC1)
 578:/usr/lib/avr/include/avr/power.h **** #define power_psc1_enable()     (PRR &= (uint8_t)~(1 << PRPSC1))
 579:/usr/lib/avr/include/avr/power.h **** #define power_psc1_disable()    (PRR |= (uint8_t)(1 << PRPSC1))
 580:/usr/lib/avr/include/avr/power.h **** #endif
 581:/usr/lib/avr/include/avr/power.h **** 
 582:/usr/lib/avr/include/avr/power.h **** #if defined(__AVR_HAVE_PRR_PRPSC2)
 583:/usr/lib/avr/include/avr/power.h **** #define power_psc2_enable()     (PRR &= (uint8_t)~(1 << PRPSC2))
 584:/usr/lib/avr/include/avr/power.h **** #define power_psc2_disable()    (PRR |= (uint8_t)(1 << PRPSC2))
 585:/usr/lib/avr/include/avr/power.h **** #endif
 586:/usr/lib/avr/include/avr/power.h **** 
 587:/usr/lib/avr/include/avr/power.h **** #if defined(__AVR_HAVE_PRR_PRPSCR)
 588:/usr/lib/avr/include/avr/power.h **** #define power_pscr_enable()     (PRR &= (uint8_t)~(1 << PRPSCR))
 589:/usr/lib/avr/include/avr/power.h **** #define power_pscr_disable()    (PRR |= (uint8_t)(1 << PRPSCR))
 590:/usr/lib/avr/include/avr/power.h **** #endif
 591:/usr/lib/avr/include/avr/power.h **** 
 592:/usr/lib/avr/include/avr/power.h **** #if defined(__AVR_HAVE_PRR_PRSPI)
 593:/usr/lib/avr/include/avr/power.h **** #define power_spi_enable()      (PRR &= (uint8_t)~(1 << PRSPI))
 594:/usr/lib/avr/include/avr/power.h **** #define power_spi_disable()     (PRR |= (uint8_t)(1 << PRSPI))
 595:/usr/lib/avr/include/avr/power.h **** #endif
 596:/usr/lib/avr/include/avr/power.h **** 
 597:/usr/lib/avr/include/avr/power.h **** #if defined(__AVR_HAVE_PRR_PRTIM0)
 598:/usr/lib/avr/include/avr/power.h **** #define power_timer0_enable()   (PRR &= (uint8_t)~(1 << PRTIM0))
 599:/usr/lib/avr/include/avr/power.h **** #define power_timer0_disable()  (PRR |= (uint8_t)(1 << PRTIM0))
 600:/usr/lib/avr/include/avr/power.h **** #endif
 601:/usr/lib/avr/include/avr/power.h **** 
 602:/usr/lib/avr/include/avr/power.h **** #if defined(__AVR_HAVE_PRR_PRTIM1)
 603:/usr/lib/avr/include/avr/power.h **** #define power_timer1_enable()   (PRR &= (uint8_t)~(1 << PRTIM1))
 604:/usr/lib/avr/include/avr/power.h **** #define power_timer1_disable()  (PRR |= (uint8_t)(1 << PRTIM1))
 605:/usr/lib/avr/include/avr/power.h **** #endif
 606:/usr/lib/avr/include/avr/power.h **** 
 607:/usr/lib/avr/include/avr/power.h **** #if defined(__AVR_HAVE_PRR_PRTIM2)
 608:/usr/lib/avr/include/avr/power.h **** #define power_timer2_enable()   (PRR &= (uint8_t)~(1 << PRTIM2))
 609:/usr/lib/avr/include/avr/power.h **** #define power_timer2_disable()  (PRR |= (uint8_t)(1 << PRTIM2))
 610:/usr/lib/avr/include/avr/power.h **** #endif
 611:/usr/lib/avr/include/avr/power.h **** 
 612:/usr/lib/avr/include/avr/power.h **** #if defined(__AVR_HAVE_PRR_PRTWI)
 613:/usr/lib/avr/include/avr/power.h **** #define power_twi_enable()      (PRR &= (uint8_t)~(1 << PRTWI))
 614:/usr/lib/avr/include/avr/power.h **** #define power_twi_disable()     (PRR |= (uint8_t)(1 << PRTWI))
 615:/usr/lib/avr/include/avr/power.h **** #endif
 616:/usr/lib/avr/include/avr/power.h **** 
 617:/usr/lib/avr/include/avr/power.h **** #if defined(__AVR_HAVE_PRR_PRUSART)
 618:/usr/lib/avr/include/avr/power.h **** #define power_usart_enable()    (PRR &= (uint8_t)~(1 << PRUSART))
 619:/usr/lib/avr/include/avr/power.h **** #define power_usart_disable()   (PRR |= (uint8_t)(1 << PRUSART))
 620:/usr/lib/avr/include/avr/power.h **** #endif
 621:/usr/lib/avr/include/avr/power.h **** 
 622:/usr/lib/avr/include/avr/power.h **** #if defined(__AVR_HAVE_PRR_PRUSART0)
 623:/usr/lib/avr/include/avr/power.h **** #define power_usart0_enable()   (PRR &= (uint8_t)~(1 << PRUSART0))
 624:/usr/lib/avr/include/avr/power.h **** #define power_usart0_disable()  (PRR |= (uint8_t)(1 << PRUSART0))
 625:/usr/lib/avr/include/avr/power.h **** #endif
 626:/usr/lib/avr/include/avr/power.h **** 
 627:/usr/lib/avr/include/avr/power.h **** #if defined(__AVR_HAVE_PRR_PRUSART1)
 628:/usr/lib/avr/include/avr/power.h **** #define power_usart1_enable()   (PRR &= (uint8_t)~(1 << PRUSART1))
 629:/usr/lib/avr/include/avr/power.h **** #define power_usart1_disable()  (PRR |= (uint8_t)(1 << PRUSART1))
 630:/usr/lib/avr/include/avr/power.h **** #endif
 631:/usr/lib/avr/include/avr/power.h **** 
 632:/usr/lib/avr/include/avr/power.h **** #if defined(__AVR_HAVE_PRR_PRUSI)
 633:/usr/lib/avr/include/avr/power.h **** #define power_usi_enable()      (PRR &= (uint8_t)~(1 << PRUSI))
 634:/usr/lib/avr/include/avr/power.h **** #define power_usi_disable()     (PRR |= (uint8_t)(1 << PRUSI))
 635:/usr/lib/avr/include/avr/power.h **** #endif
 636:/usr/lib/avr/include/avr/power.h **** 
 637:/usr/lib/avr/include/avr/power.h **** #if defined(__AVR_HAVE_PRR0_PRADC)
 638:/usr/lib/avr/include/avr/power.h **** #define power_adc_enable()      (PRR0 &= (uint8_t)~(1 << PRADC))
 639:/usr/lib/avr/include/avr/power.h **** #define power_adc_disable()     (PRR0 |= (uint8_t)(1 << PRADC))
 640:/usr/lib/avr/include/avr/power.h **** #endif
 641:/usr/lib/avr/include/avr/power.h **** 
 642:/usr/lib/avr/include/avr/power.h **** #if defined(__AVR_HAVE_PRR0_PRCO)
 643:/usr/lib/avr/include/avr/power.h **** #define power_clock_output_enable()     (PRR0 &= (uint8_t)~(1 << PRCO))
 644:/usr/lib/avr/include/avr/power.h **** #define power_clock_output_disable()    (PRR0 |= (uint8_t)(1 << PRCO))
 645:/usr/lib/avr/include/avr/power.h **** #endif
 646:/usr/lib/avr/include/avr/power.h **** 
 647:/usr/lib/avr/include/avr/power.h **** #if defined(__AVR_HAVE_PRR0_PRCRC)
 648:/usr/lib/avr/include/avr/power.h **** #define power_crc_enable()              (PRR0 &= (uint8_t)~(1 << PRCRC))
 649:/usr/lib/avr/include/avr/power.h **** #define power_crc_disable()             (PRR0 |= (uint8_t)(1 << PRCRC))
 650:/usr/lib/avr/include/avr/power.h **** #endif
 651:/usr/lib/avr/include/avr/power.h **** 
 652:/usr/lib/avr/include/avr/power.h **** #if defined(__AVR_HAVE_PRR0_PRCU)
 653:/usr/lib/avr/include/avr/power.h **** #define power_crypto_enable()           (PRR0 &= (uint8_t)~(1 << PRCU))
 654:/usr/lib/avr/include/avr/power.h **** #define power_crypto_disable()          (PRR0 |= (uint8_t)(1 << PRCU))
 655:/usr/lib/avr/include/avr/power.h **** #endif
 656:/usr/lib/avr/include/avr/power.h **** 
 657:/usr/lib/avr/include/avr/power.h **** #if defined(__AVR_HAVE_PRR0_PRDS)
 658:/usr/lib/avr/include/avr/power.h **** #define power_irdriver_enable()         (PRR0 &= (uint8_t)~(1 << PRDS))
 659:/usr/lib/avr/include/avr/power.h **** #define power_irdriver_disable()        (PRR0 |= (uint8_t)(1 << PRDS))
 660:/usr/lib/avr/include/avr/power.h **** #endif
 661:/usr/lib/avr/include/avr/power.h **** 
 662:/usr/lib/avr/include/avr/power.h **** #if defined(__AVR_HAVE_PRR0_PRLFR)
 663:/usr/lib/avr/include/avr/power.h **** #define power_lfreceiver_enable()       (PRR0 &= (uint8_t)~(1 << PRLFR))
 664:/usr/lib/avr/include/avr/power.h **** #define power_lfreceiver_disable()      (PRR0 |= (uint8_t)(1 << PRLFR))
 665:/usr/lib/avr/include/avr/power.h **** #endif
 666:/usr/lib/avr/include/avr/power.h **** 
 667:/usr/lib/avr/include/avr/power.h **** #if defined(__AVR_HAVE_PRR0_PRLFRS)
 668:/usr/lib/avr/include/avr/power.h **** #define power_lfrs_enable()             (PRR0 &= (uint8_t)~(1 << PRLFRS))
 669:/usr/lib/avr/include/avr/power.h **** #define power_lfrs_disable()            (PRR0 |= (uint8_t)(1 << PRLFRS))
 670:/usr/lib/avr/include/avr/power.h **** #endif
 671:/usr/lib/avr/include/avr/power.h **** 
 672:/usr/lib/avr/include/avr/power.h **** #if defined(__AVR_HAVE_PRR0_PRLIN)
 673:/usr/lib/avr/include/avr/power.h **** #define power_lin_enable()              (PRR0 &= (uint8_t)~(1 << PRLIN))
 674:/usr/lib/avr/include/avr/power.h **** #define power_lin_disable()             (PRR0 |= (uint8_t)(1 << PRLIN))
 675:/usr/lib/avr/include/avr/power.h **** #endif
 676:/usr/lib/avr/include/avr/power.h **** 
 677:/usr/lib/avr/include/avr/power.h **** #if defined(__AVR_HAVE_PRR0_PRPGA)
 678:/usr/lib/avr/include/avr/power.h **** #define power_pga_enable()              (PRR0 &= (uint8_t)~(1 << PRPGA))
 679:/usr/lib/avr/include/avr/power.h **** #define power_pga_disable()             (PRR0 |= (uint8_t)(1 << PRPGA))
 680:/usr/lib/avr/include/avr/power.h **** #endif
 681:/usr/lib/avr/include/avr/power.h **** 
 682:/usr/lib/avr/include/avr/power.h **** #if defined(__AVR_HAVE_PRR0_PRRXDC)
 683:/usr/lib/avr/include/avr/power.h **** #define power_receive_dsp_control_enable()  (PRR0 &= (uint8_t)~(1 << PRRXDC))
 684:/usr/lib/avr/include/avr/power.h **** #define power_receive_dsp_control_disable() (PRR0 |= (uint8_t)(1 << PRRXDC))
 685:/usr/lib/avr/include/avr/power.h **** #endif
 686:/usr/lib/avr/include/avr/power.h **** 
 687:/usr/lib/avr/include/avr/power.h **** #if defined(__AVR_HAVE_PRR0_PRSPI)
 688:/usr/lib/avr/include/avr/power.h **** #define power_spi_enable()              (PRR0 &= (uint8_t)~(1 << PRSPI))
 689:/usr/lib/avr/include/avr/power.h **** #define power_spi_disable()             (PRR0 |= (uint8_t)(1 << PRSPI))
 690:/usr/lib/avr/include/avr/power.h **** #endif
 691:/usr/lib/avr/include/avr/power.h **** 
 692:/usr/lib/avr/include/avr/power.h **** #if defined(__AVR_HAVE_PRR0_PRT0)
 693:/usr/lib/avr/include/avr/power.h **** #define power_timer0_enable()           (PRR0 &= (uint8_t)~(1 << PRT0))
 694:/usr/lib/avr/include/avr/power.h **** #define power_timer0_disable()          (PRR0 |= (uint8_t)(1 << PRT0))
 695:/usr/lib/avr/include/avr/power.h **** #endif
 696:/usr/lib/avr/include/avr/power.h **** 
 697:/usr/lib/avr/include/avr/power.h **** #if defined(__AVR_HAVE_PRR0_PRTIM0)
 698:/usr/lib/avr/include/avr/power.h **** #define power_timer0_enable()           (PRR0 &= (uint8_t)~(1 << PRTIM0))
 699:/usr/lib/avr/include/avr/power.h **** #define power_timer0_disable()          (PRR0 |= (uint8_t)(1 << PRTIM0))
 700:/usr/lib/avr/include/avr/power.h **** #endif
 701:/usr/lib/avr/include/avr/power.h **** 
 702:/usr/lib/avr/include/avr/power.h **** #if defined(__AVR_HAVE_PRR0_PRT1)
 703:/usr/lib/avr/include/avr/power.h **** #define power_timer1_enable()           (PRR0 &= (uint8_t)~(1 << PRT1))
 704:/usr/lib/avr/include/avr/power.h **** #define power_timer1_disable()          (PRR0 |= (uint8_t)(1 << PRT1))
 705:/usr/lib/avr/include/avr/power.h **** #endif
 706:/usr/lib/avr/include/avr/power.h **** 
 707:/usr/lib/avr/include/avr/power.h **** #if defined(__AVR_HAVE_PRR0_PRTIM1)
 708:/usr/lib/avr/include/avr/power.h **** #define power_timer1_enable()           (PRR0 &= (uint8_t)~(1 << PRTIM1))
 709:/usr/lib/avr/include/avr/power.h **** #define power_timer1_disable()          (PRR0 |= (uint8_t)(1 << PRTIM1))
 710:/usr/lib/avr/include/avr/power.h **** #endif
 711:/usr/lib/avr/include/avr/power.h **** 
 712:/usr/lib/avr/include/avr/power.h **** #if defined(__AVR_HAVE_PRR0_PRT2)
 713:/usr/lib/avr/include/avr/power.h **** #define power_timer2_enable()           (PRR0 &= (uint8_t)~(1 << PRT2))
 714:/usr/lib/avr/include/avr/power.h **** #define power_timer2_disable()          (PRR0 |= (uint8_t)(1 << PRT2))
 715:/usr/lib/avr/include/avr/power.h **** #endif
 716:/usr/lib/avr/include/avr/power.h **** 
 717:/usr/lib/avr/include/avr/power.h **** #if defined(__AVR_HAVE_PRR0_PRTIM2)
 718:/usr/lib/avr/include/avr/power.h **** #define power_timer2_enable()           (PRR0 &= (uint8_t)~(1 << PRTIM2))
 719:/usr/lib/avr/include/avr/power.h **** #define power_timer2_disable()          (PRR0 |= (uint8_t)(1 << PRTIM2))
 720:/usr/lib/avr/include/avr/power.h **** #endif
 721:/usr/lib/avr/include/avr/power.h **** 
 722:/usr/lib/avr/include/avr/power.h **** #if defined(__AVR_HAVE_PRR0_PRT3)
 723:/usr/lib/avr/include/avr/power.h **** #define power_timer3_enable()           (PRR0 &= (uint8_t)~(1 << PRT3))
 724:/usr/lib/avr/include/avr/power.h **** #define power_timer3_disable()          (PRR0 |= (uint8_t)(1 << PRT3))
 725:/usr/lib/avr/include/avr/power.h **** #endif
 726:/usr/lib/avr/include/avr/power.h **** 
 727:/usr/lib/avr/include/avr/power.h **** #if defined(__AVR_HAVE_PRR0_PRTM)
 728:/usr/lib/avr/include/avr/power.h **** #define power_timermodulator_enable()   (PRR0 &= (uint8_t)~(1 << PRTM))
 729:/usr/lib/avr/include/avr/power.h **** #define power_timermodulator_disable()  (PRR0 |= (uint8_t)(1 << PRTM))
 730:/usr/lib/avr/include/avr/power.h **** #endif
 731:/usr/lib/avr/include/avr/power.h **** 
 732:/usr/lib/avr/include/avr/power.h **** #if defined(__AVR_HAVE_PRR0_PRTWI)
 733:/usr/lib/avr/include/avr/power.h **** #define power_twi_enable()              (PRR0 &= (uint8_t)~(1 << PRTWI))
 734:/usr/lib/avr/include/avr/power.h **** #define power_twi_disable()             (PRR0 |= (uint8_t)(1 << PRTWI))
 735:/usr/lib/avr/include/avr/power.h **** #endif
 736:/usr/lib/avr/include/avr/power.h **** 
 737:/usr/lib/avr/include/avr/power.h **** #if defined(__AVR_HAVE_PRR0_PRTWI1)
 738:/usr/lib/avr/include/avr/power.h **** #define power_twi1_enable()             (PRR0 &= (uint8_t)~(1 << PRTWI1))
 739:/usr/lib/avr/include/avr/power.h **** #define power_twi1_disable()            (PRR0 |= (uint8_t)(1 << PRTWI1))
 740:/usr/lib/avr/include/avr/power.h **** #endif
 741:/usr/lib/avr/include/avr/power.h **** 
 742:/usr/lib/avr/include/avr/power.h **** #if defined(__AVR_HAVE_PRR0_PRTXDC)
 743:/usr/lib/avr/include/avr/power.h **** #define power_transmit_dsp_control_enable()   (PRR0 &= (uint8_t)~(1 << PRTXDC))
 744:/usr/lib/avr/include/avr/power.h **** #define power_transmit_dsp_control_disable()  (PRR0 |= (uint8_t)(1 << PRTXDC))
 745:/usr/lib/avr/include/avr/power.h **** #endif
 746:/usr/lib/avr/include/avr/power.h **** 
 747:/usr/lib/avr/include/avr/power.h **** #if defined(__AVR_HAVE_PRR0_PRUSART0)
 748:/usr/lib/avr/include/avr/power.h **** #define power_usart0_enable()           (PRR0 &= (uint8_t)~(1 << PRUSART0))
 749:/usr/lib/avr/include/avr/power.h **** #define power_usart0_disable()          (PRR0 |= (uint8_t)(1 << PRUSART0))
 750:/usr/lib/avr/include/avr/power.h **** #endif
 751:/usr/lib/avr/include/avr/power.h **** 
 752:/usr/lib/avr/include/avr/power.h **** #if defined(__AVR_HAVE_PRR0_PRUSART1)
 753:/usr/lib/avr/include/avr/power.h **** #define power_usart1_enable()           (PRR0 &= (uint8_t)~(1 << PRUSART1))
 754:/usr/lib/avr/include/avr/power.h **** #define power_usart1_disable()          (PRR0 |= (uint8_t)(1 << PRUSART1))
 755:/usr/lib/avr/include/avr/power.h **** #endif
 756:/usr/lib/avr/include/avr/power.h **** 
 757:/usr/lib/avr/include/avr/power.h **** #if defined(__AVR_HAVE_PRR0_PRVADC)
 758:/usr/lib/avr/include/avr/power.h **** #define power_vadc_enable()             (PRR0 &= (uint8_t)~(1 << PRVADC))
 759:/usr/lib/avr/include/avr/power.h **** #define power_vadc_disable()            (PRR0 |= (uint8_t)(1 << PRVADC))
 760:/usr/lib/avr/include/avr/power.h **** #endif
 761:/usr/lib/avr/include/avr/power.h **** 
 762:/usr/lib/avr/include/avr/power.h **** #if defined(__AVR_HAVE_PRR0_PRVM)
 763:/usr/lib/avr/include/avr/power.h **** #define power_voltage_monitor_enable()  (PRR0 &= (uint8_t)~(1 << PRVM))
 764:/usr/lib/avr/include/avr/power.h **** #define power_voltage_monitor_disable() (PRR0 |= (uint8_t)(1 << PRVM))
 765:/usr/lib/avr/include/avr/power.h **** #endif
 766:/usr/lib/avr/include/avr/power.h **** 
 767:/usr/lib/avr/include/avr/power.h **** #if defined(__AVR_HAVE_PRR0_PRVRM)
 768:/usr/lib/avr/include/avr/power.h **** #define power_vrm_enable()              (PRR0 &= (uint8_t)~(1 << PRVRM))
 769:/usr/lib/avr/include/avr/power.h **** #define power_vrm_disable()             (PRR0 |= (uint8_t)(1 << PRVRM))
 770:/usr/lib/avr/include/avr/power.h **** #endif
 771:/usr/lib/avr/include/avr/power.h **** 
 772:/usr/lib/avr/include/avr/power.h **** #if defined(__AVR_HAVE_PRR1_PRAES)
 773:/usr/lib/avr/include/avr/power.h **** #define power_aes_enable()              (PRR1 &= (uint8_t)~(1 << PRAES))
 774:/usr/lib/avr/include/avr/power.h **** #define power_aes_disable()             (PRR1 |= (uint8_t)(1 << PRAES))
 775:/usr/lib/avr/include/avr/power.h **** #endif
 776:/usr/lib/avr/include/avr/power.h **** 
 777:/usr/lib/avr/include/avr/power.h **** #if defined(__AVR_HAVE_PRR1_PRCI)
 778:/usr/lib/avr/include/avr/power.h **** #define power_cinterface_enable()       (PRR1 &= (uint8_t)~(1 << PRCI))
 779:/usr/lib/avr/include/avr/power.h **** #define power_cinterface_disable()      (PRR1 |= (uint8_t)(1 << PRCI))
 780:/usr/lib/avr/include/avr/power.h **** #endif
 781:/usr/lib/avr/include/avr/power.h **** 
 782:/usr/lib/avr/include/avr/power.h **** #if defined(__AVR_HAVE_PRR1_PRHSSPI)
 783:/usr/lib/avr/include/avr/power.h **** #define power_hsspi_enable()            (PRR1 &= (uint8_t)~(1 << PRHSSPI))
 784:/usr/lib/avr/include/avr/power.h **** #define power_hsspi_disable()           (PRR1 |= (uint8_t)(1 << PRHSSPI))
 785:/usr/lib/avr/include/avr/power.h **** #endif
 786:/usr/lib/avr/include/avr/power.h **** 
 787:/usr/lib/avr/include/avr/power.h **** #if defined(__AVR_HAVE_PRR1_PRKB)
 788:/usr/lib/avr/include/avr/power.h **** #define power_kb_enable()               (PRR1 &= (uint8_t)~(1 << PRKB))
 789:/usr/lib/avr/include/avr/power.h **** #define power_kb_disable()              (PRR1 |= (uint8_t)(1 << PRKB))
 790:/usr/lib/avr/include/avr/power.h **** #endif
 791:/usr/lib/avr/include/avr/power.h **** 
 792:/usr/lib/avr/include/avr/power.h **** #if defined(__AVR_HAVE_PRR1_PRLFPH)
 793:/usr/lib/avr/include/avr/power.h **** #define power_lfph_enable()             (PRR1 &= (uint8_t)~(1 << PRLFPH))
 794:/usr/lib/avr/include/avr/power.h **** #define power_lfph_disable()            (PRR1 |= (uint8_t)(1 << PRLFPH))
 795:/usr/lib/avr/include/avr/power.h **** #endif
 796:/usr/lib/avr/include/avr/power.h **** 
 797:/usr/lib/avr/include/avr/power.h **** #if defined(__AVR_HAVE_PRR1_PRLFR)
 798:/usr/lib/avr/include/avr/power.h **** #define power_lfreceiver_enable()       (PRR1 &= (uint8_t)~(1 << PRLFR))            
 799:/usr/lib/avr/include/avr/power.h **** #define power_lfreceiver_disable()      (PRR1 |= (uint8_t)(1 << PRLFR))            
 800:/usr/lib/avr/include/avr/power.h **** #endif
 801:/usr/lib/avr/include/avr/power.h **** 
 802:/usr/lib/avr/include/avr/power.h **** #if defined(__AVR_HAVE_PRR1_PRLFTP)
 803:/usr/lib/avr/include/avr/power.h **** #define power_lftp_enable()             (PRR1 &= (uint8_t)~(1 << PRLFTP))
 804:/usr/lib/avr/include/avr/power.h **** #define power_lftp_disable()            (PRR1 |= (uint8_t)(1 << PRLFTP))
 805:/usr/lib/avr/include/avr/power.h **** #endif
 806:/usr/lib/avr/include/avr/power.h **** 
 807:/usr/lib/avr/include/avr/power.h **** #if defined(__AVR_HAVE_PRR1_PRSCI)
 808:/usr/lib/avr/include/avr/power.h **** #define power_sci_enable()              (PRR1 &= (uint8_t)~(1 << PRSCI))
 809:/usr/lib/avr/include/avr/power.h **** #define power_sci_disable()             (PRR1 |= (uint8_t)(1 << PRSCI))
 810:/usr/lib/avr/include/avr/power.h **** #endif
 811:/usr/lib/avr/include/avr/power.h **** 
 812:/usr/lib/avr/include/avr/power.h **** #if defined(__AVR_HAVE_PRR1_PRSPI)
 813:/usr/lib/avr/include/avr/power.h **** #define power_spi_enable()              (PRR1 &= (uint8_t)~(1 << PRSPI))
 814:/usr/lib/avr/include/avr/power.h **** #define power_spi_disable()             (PRR1 |= (uint8_t)(1 << PRSPI))
 815:/usr/lib/avr/include/avr/power.h **** #endif
 816:/usr/lib/avr/include/avr/power.h **** 
 817:/usr/lib/avr/include/avr/power.h **** #if defined(__AVR_HAVE_PRR1_PRT1)
 818:/usr/lib/avr/include/avr/power.h **** #define power_timer1_enable()           (PRR1 &= (uint8_t)~(1 << PRT1))
 819:/usr/lib/avr/include/avr/power.h **** #define power_timer1_disable()          (PRR1 |= (uint8_t)(1 << PRT1))
 820:/usr/lib/avr/include/avr/power.h **** #endif
 821:/usr/lib/avr/include/avr/power.h **** 
 822:/usr/lib/avr/include/avr/power.h **** #if defined(__AVR_HAVE_PRR1_PRT2)
 823:/usr/lib/avr/include/avr/power.h **** #define power_timer2_enable()           (PRR1 &= (uint8_t)~(1 << PRT2))
 824:/usr/lib/avr/include/avr/power.h **** #define power_timer2_disable()          (PRR1 |= (uint8_t)(1 << PRT2))
 825:/usr/lib/avr/include/avr/power.h **** #endif
 826:/usr/lib/avr/include/avr/power.h **** 
 827:/usr/lib/avr/include/avr/power.h **** #if defined(__AVR_HAVE_PRR1_PRT3)
 828:/usr/lib/avr/include/avr/power.h **** #define power_timer3_enable()           (PRR1 &= (uint8_t)~(1 << PRT3))
 829:/usr/lib/avr/include/avr/power.h **** #define power_timer3_disable()          (PRR1 |= (uint8_t)(1 << PRT3))
 830:/usr/lib/avr/include/avr/power.h **** #endif
 831:/usr/lib/avr/include/avr/power.h **** 
 832:/usr/lib/avr/include/avr/power.h **** #if defined(__AVR_HAVE_PRR1_PRT4)
 833:/usr/lib/avr/include/avr/power.h **** #define power_timer4_enable()           (PRR1 &= (uint8_t)~(1 << PRT4))
 834:/usr/lib/avr/include/avr/power.h **** #define power_timer4_disable()          (PRR1 |= (uint8_t)(1 << PRT4))
 835:/usr/lib/avr/include/avr/power.h **** #endif
 836:/usr/lib/avr/include/avr/power.h **** 
 837:/usr/lib/avr/include/avr/power.h **** #if defined(__AVR_HAVE_PRR1_PRT5)
 838:/usr/lib/avr/include/avr/power.h **** #define power_timer5_enable()           (PRR1 &= (uint8_t)~(1 << PRT5))
 839:/usr/lib/avr/include/avr/power.h **** #define power_timer5_disable()          (PRR1 |= (uint8_t)(1 << PRT5))
 840:/usr/lib/avr/include/avr/power.h **** #endif
 841:/usr/lib/avr/include/avr/power.h **** 
 842:/usr/lib/avr/include/avr/power.h **** #if defined(__AVR_HAVE_PRR1_PRTIM3)
 843:/usr/lib/avr/include/avr/power.h **** #define power_timer3_enable()           (PRR1 &= (uint8_t)~(1 << PRTIM3))
 844:/usr/lib/avr/include/avr/power.h **** #define power_timer3_disable()          (PRR1 |= (uint8_t)(1 << PRTIM3))
 845:/usr/lib/avr/include/avr/power.h **** #endif
 846:/usr/lib/avr/include/avr/power.h **** 
 847:/usr/lib/avr/include/avr/power.h **** #if defined(__AVR_HAVE_PRR1_PRTIM4)
 848:/usr/lib/avr/include/avr/power.h **** #define power_timer4_enable()           (PRR1 &= (uint8_t)~(1 << PRTIM4))
 849:/usr/lib/avr/include/avr/power.h **** #define power_timer4_disable()          (PRR1 |= (uint8_t)(1 << PRTIM4))
 850:/usr/lib/avr/include/avr/power.h **** #endif
 851:/usr/lib/avr/include/avr/power.h **** 
 852:/usr/lib/avr/include/avr/power.h **** #if defined(__AVR_HAVE_PRR1_PRTIM5)
 853:/usr/lib/avr/include/avr/power.h **** #define power_timer5_enable()           (PRR1 &= (uint8_t)~(1 << PRTIM5))
 854:/usr/lib/avr/include/avr/power.h **** #define power_timer5_disable()          (PRR1 |= (uint8_t)(1 << PRTIM5))
 855:/usr/lib/avr/include/avr/power.h **** #endif
 856:/usr/lib/avr/include/avr/power.h **** 
 857:/usr/lib/avr/include/avr/power.h **** #if defined(__AVR_HAVE_PRR1_PRTRX24)
 858:/usr/lib/avr/include/avr/power.h **** #define power_transceiver_enable()      (PRR1 &= (uint8_t)~(1 << PRTRX24))
 859:/usr/lib/avr/include/avr/power.h **** #define power_transceiver_disable()     (PRR1 |= (uint8_t)(1 << PRTRX24))
 860:/usr/lib/avr/include/avr/power.h **** #endif
 861:/usr/lib/avr/include/avr/power.h **** 
 862:/usr/lib/avr/include/avr/power.h **** #if defined(__AVR_HAVE_PRR1_PRUSART1)
 863:/usr/lib/avr/include/avr/power.h **** #define power_usart1_enable()           (PRR1 &= (uint8_t)~(1 << PRUSART1))
 864:/usr/lib/avr/include/avr/power.h **** #define power_usart1_disable()          (PRR1 |= (uint8_t)(1 << PRUSART1))
 865:/usr/lib/avr/include/avr/power.h **** #endif
 866:/usr/lib/avr/include/avr/power.h **** 
 867:/usr/lib/avr/include/avr/power.h **** #if defined(__AVR_HAVE_PRR1_PRUSART2)
 868:/usr/lib/avr/include/avr/power.h **** #define power_usart2_enable()           (PRR1 &= (uint8_t)~(1 << PRUSART2))
 869:/usr/lib/avr/include/avr/power.h **** #define power_usart2_disable()          (PRR1 |= (uint8_t)(1 << PRUSART2))
 870:/usr/lib/avr/include/avr/power.h **** #endif
 871:/usr/lib/avr/include/avr/power.h **** 
 872:/usr/lib/avr/include/avr/power.h **** #if defined(__AVR_HAVE_PRR1_PRUSART3)
 873:/usr/lib/avr/include/avr/power.h **** #define power_usart3_enable()           (PRR1 &= (uint8_t)~(1 << PRUSART3))
 874:/usr/lib/avr/include/avr/power.h **** #define power_usart3_disable()          (PRR1 |= (uint8_t)(1 << PRUSART3))
 875:/usr/lib/avr/include/avr/power.h **** #endif
 876:/usr/lib/avr/include/avr/power.h **** 
 877:/usr/lib/avr/include/avr/power.h **** #if defined(__AVR_HAVE_PRR1_PRUSB)
 878:/usr/lib/avr/include/avr/power.h **** #define power_usb_enable()              (PRR1 &= (uint8_t)~(1 << PRUSB))
 879:/usr/lib/avr/include/avr/power.h **** #define power_usb_disable()             (PRR1 |= (uint8_t)(1 << PRUSB))
 880:/usr/lib/avr/include/avr/power.h **** #endif
 881:/usr/lib/avr/include/avr/power.h **** 
 882:/usr/lib/avr/include/avr/power.h **** #if defined(__AVR_HAVE_PRR1_PRUSBH)
 883:/usr/lib/avr/include/avr/power.h **** #define power_usbh_enable()             (PRR1 &= (uint8_t)~(1 << PRUSBH))
 884:/usr/lib/avr/include/avr/power.h **** #define power_usbh_disable()            (PRR1 |= (uint8_t)(1 << PRUSBH))
 885:/usr/lib/avr/include/avr/power.h **** #endif
 886:/usr/lib/avr/include/avr/power.h **** 
 887:/usr/lib/avr/include/avr/power.h **** #if defined(__AVR_HAVE_PRR2_PRDF)
 888:/usr/lib/avr/include/avr/power.h **** #define power_data_fifo_enable()        (PRR2 &= (uint8_t)~(1 << PRDF))
 889:/usr/lib/avr/include/avr/power.h **** #define power_data_fifo_disable()       (PRR2 |= (uint8_t)(1 << PRDF))
 890:/usr/lib/avr/include/avr/power.h **** #endif
 891:/usr/lib/avr/include/avr/power.h **** 
 892:/usr/lib/avr/include/avr/power.h **** #if defined(__AVR_HAVE_PRR2_PRIDS)
 893:/usr/lib/avr/include/avr/power.h **** #define power_id_scan_enable()          (PRR2 &= (uint8_t)~(1 << PRIDS))
 894:/usr/lib/avr/include/avr/power.h **** #define power_id_scan_disable()         (PRR2 |= (uint8_t)(1 << PRIDS))
 895:/usr/lib/avr/include/avr/power.h **** #endif
 896:/usr/lib/avr/include/avr/power.h **** 
 897:/usr/lib/avr/include/avr/power.h **** #if defined(__AVR_HAVE_PRR2_PRRAM0)
 898:/usr/lib/avr/include/avr/power.h **** #define power_ram0_enable()             (PRR2 &= (uint8_t)~(1 << PRRAM0))
 899:/usr/lib/avr/include/avr/power.h **** #define power_ram0_disable()            (PRR2 |= (uint8_t)(1 << PRRAM0))
 900:/usr/lib/avr/include/avr/power.h **** #endif
 901:/usr/lib/avr/include/avr/power.h **** 
 902:/usr/lib/avr/include/avr/power.h **** #if defined(__AVR_HAVE_PRR2_PRRAM1)
 903:/usr/lib/avr/include/avr/power.h **** #define power_ram1_enable()             (PRR2 &= (uint8_t)~(1 << PRRAM1))
 904:/usr/lib/avr/include/avr/power.h **** #define power_ram1_disable()            (PRR2 |= (uint8_t)(1 << PRRAM1))
 905:/usr/lib/avr/include/avr/power.h **** #endif
 906:/usr/lib/avr/include/avr/power.h **** 
 907:/usr/lib/avr/include/avr/power.h **** #if defined(__AVR_HAVE_PRR2_PRRAM2)
 908:/usr/lib/avr/include/avr/power.h **** #define power_ram2_enable()             (PRR2 &= (uint8_t)~(1 << PRRAM2))
 909:/usr/lib/avr/include/avr/power.h **** #define power_ram2_disable()            (PRR2 |= (uint8_t)(1 << PRRAM2))
 910:/usr/lib/avr/include/avr/power.h **** #endif
 911:/usr/lib/avr/include/avr/power.h **** 
 912:/usr/lib/avr/include/avr/power.h **** #if defined(__AVR_HAVE_PRR2_PRRAM3)
 913:/usr/lib/avr/include/avr/power.h **** #define power_ram3_enable()             (PRR2 &= (uint8_t)~(1 << PRRAM3))
 914:/usr/lib/avr/include/avr/power.h **** #define power_ram3_disable()            (PRR2 |= (uint8_t)(1 << PRRAM3))
 915:/usr/lib/avr/include/avr/power.h **** #endif
 916:/usr/lib/avr/include/avr/power.h **** 
 917:/usr/lib/avr/include/avr/power.h **** #if defined(__AVR_HAVE_PRR2_PRRS)
 918:/usr/lib/avr/include/avr/power.h **** #define power_rssi_buffer_enable()      (PRR2 &= (uint8_t)~(1 << PRRS))
 919:/usr/lib/avr/include/avr/power.h **** #define power_rssi_buffer_disable()     (PRR2 |= (uint8_t)(1 << PRRS))
 920:/usr/lib/avr/include/avr/power.h **** #endif
 921:/usr/lib/avr/include/avr/power.h **** 
 922:/usr/lib/avr/include/avr/power.h **** #if defined(__AVR_HAVE_PRR2_PRSF)
 923:/usr/lib/avr/include/avr/power.h **** #define power_preamble_rssi_fifo_enable()       (PRR2 &= (uint8_t)~(1 << PRSF))
 924:/usr/lib/avr/include/avr/power.h **** #define power_preamble_rssi_fifo_disable()      (PRR2 |= (uint8_t)(1 << PRSF))
 925:/usr/lib/avr/include/avr/power.h **** #endif
 926:/usr/lib/avr/include/avr/power.h **** 
 927:/usr/lib/avr/include/avr/power.h **** #if defined(__AVR_HAVE_PRR2_PRSPI2)
 928:/usr/lib/avr/include/avr/power.h **** #define power_spi2_enable()             (PRR2 &= (uint8_t)~(1 << PRSPI2))
 929:/usr/lib/avr/include/avr/power.h **** #define power_spi2_disable()            (PRR2 |= (uint8_t)(1 << PRSPI2))
 930:/usr/lib/avr/include/avr/power.h **** #endif
 931:/usr/lib/avr/include/avr/power.h **** 
 932:/usr/lib/avr/include/avr/power.h **** #if defined(__AVR_HAVE_PRR2_PRSSM)
 933:/usr/lib/avr/include/avr/power.h **** #define power_sequencer_state_machine_enable()  (PRR2 &= (uint8_t)~(1 << PRSSM))
 934:/usr/lib/avr/include/avr/power.h **** #define power_sequencer_state_machine_disable() (PRR2 |= (uint8_t)(1 << PRSSM))
 935:/usr/lib/avr/include/avr/power.h **** #endif
 936:/usr/lib/avr/include/avr/power.h **** 
 937:/usr/lib/avr/include/avr/power.h **** #if defined(__AVR_HAVE_PRR2_PRTM)
 938:/usr/lib/avr/include/avr/power.h **** #define power_tx_modulator_enable()     (PRR2 &= (uint8_t)~(1 << PRTM))
 939:/usr/lib/avr/include/avr/power.h **** #define power_tx_modulator_disable()    (PRR2 |= (uint8_t)(1 << PRTM))
 940:/usr/lib/avr/include/avr/power.h **** #endif
 941:/usr/lib/avr/include/avr/power.h **** 
 942:/usr/lib/avr/include/avr/power.h **** #if defined(__AVR_HAVE_PRR2_PRTWI2)
 943:/usr/lib/avr/include/avr/power.h **** #define power_twi2_enable()             (PRR2 &= (uint8_t)~(1 << PRTWI2))
 944:/usr/lib/avr/include/avr/power.h **** #define power_twi2_disable()            (PRR2 |= (uint8_t)(1 << PRTWI2))
 945:/usr/lib/avr/include/avr/power.h **** #endif
 946:/usr/lib/avr/include/avr/power.h **** 
 947:/usr/lib/avr/include/avr/power.h **** #if defined(__AVR_HAVE_PRR2_PRXA)
 948:/usr/lib/avr/include/avr/power.h **** #define power_rx_buffer_A_enable()      (PRR2 &= (uint8_t)~(1 << PRXA))
 949:/usr/lib/avr/include/avr/power.h **** #define power_rx_buffer_A_disable()     (PRR2 |= (uint8_t)(1 << PRXA))
 950:/usr/lib/avr/include/avr/power.h **** #endif
 951:/usr/lib/avr/include/avr/power.h **** 
 952:/usr/lib/avr/include/avr/power.h **** #if defined(__AVR_HAVE_PRR2_PRXB)
 953:/usr/lib/avr/include/avr/power.h **** #define power_rx_buffer_B_enable()      (PRR2 &= (uint8_t)~(1 << PRXB))
 954:/usr/lib/avr/include/avr/power.h **** #define power_rx_buffer_B_disable()     (PRR2 |= (uint8_t)(1 << PRXB))
 955:/usr/lib/avr/include/avr/power.h **** #endif
 956:/usr/lib/avr/include/avr/power.h **** 
 957:/usr/lib/avr/include/avr/power.h **** #if defined(__AVR_HAVE_PRGEN_AES)
 958:/usr/lib/avr/include/avr/power.h **** #define power_aes_enable()              (PR_PRGEN &= (uint8_t)~(PR_AES_bm))
 959:/usr/lib/avr/include/avr/power.h **** #define power_aes_disable()             (PR_PRGEN |= (uint8_t)PR_AES_bm)
 960:/usr/lib/avr/include/avr/power.h **** #endif
 961:/usr/lib/avr/include/avr/power.h **** 
 962:/usr/lib/avr/include/avr/power.h **** #if defined(__AVR_HAVE_PRGEN_DMA)
 963:/usr/lib/avr/include/avr/power.h **** #define power_dma_enable()              (PR_PRGEN &= (uint8_t)~(PR_DMA_bm))
 964:/usr/lib/avr/include/avr/power.h **** #define power_dma_disable()             (PR_PRGEN |= (uint8_t)PR_DMA_bm)
 965:/usr/lib/avr/include/avr/power.h **** #endif
 966:/usr/lib/avr/include/avr/power.h **** 
 967:/usr/lib/avr/include/avr/power.h **** #if defined(__AVR_HAVE_PRGEN_EBI)
 968:/usr/lib/avr/include/avr/power.h **** #define power_ebi_enable()              (PR_PRGEN &= (uint8_t)~(PR_EBI_bm))
 969:/usr/lib/avr/include/avr/power.h **** #define power_ebi_disable()             (PR_PRGEN |= (uint8_t)PR_EBI_bm)
 970:/usr/lib/avr/include/avr/power.h **** #endif
 971:/usr/lib/avr/include/avr/power.h **** 
 972:/usr/lib/avr/include/avr/power.h **** #if defined(__AVR_HAVE_PRGEN_EDMA)
 973:/usr/lib/avr/include/avr/power.h **** #define power_edma_enable()             (PR_PRGEN &= (uint8_t)~(PR_EDMA_bm))
 974:/usr/lib/avr/include/avr/power.h **** #define power_edma_disable()            (PR_PRGEN |= (uint8_t)PR_EDMA_bm)
 975:/usr/lib/avr/include/avr/power.h **** #endif
 976:/usr/lib/avr/include/avr/power.h **** 
 977:/usr/lib/avr/include/avr/power.h **** #if defined(__AVR_HAVE_PRGEN_EVSYS)
 978:/usr/lib/avr/include/avr/power.h **** #define power_evsys_enable()            (PR_PRGEN &= (uint8_t)~(PR_EVSYS_bm))
 979:/usr/lib/avr/include/avr/power.h **** #define power_evsys_disable()           (PR_PRGEN |= (uint8_t)PR_EVSYS_bm)
 980:/usr/lib/avr/include/avr/power.h **** #endif
 981:/usr/lib/avr/include/avr/power.h **** 
 982:/usr/lib/avr/include/avr/power.h **** #if defined(__AVR_HAVE_PRGEN_LCD)
 983:/usr/lib/avr/include/avr/power.h **** #define power_lcd_enable()              (PR_PRGEN &= (uint8_t)~(PR_LCD_bm))
 984:/usr/lib/avr/include/avr/power.h **** #define power_lcd_disable()             (PR_PRGEN |= (uint8_t)PR_LCD_bm)
 985:/usr/lib/avr/include/avr/power.h **** #endif
 986:/usr/lib/avr/include/avr/power.h **** 
 987:/usr/lib/avr/include/avr/power.h **** #if defined(__AVR_HAVE_PRGEN_RTC)
 988:/usr/lib/avr/include/avr/power.h **** #define power_rtc_enable()              (PR_PRGEN &= (uint8_t)~(PR_RTC_bm))
 989:/usr/lib/avr/include/avr/power.h **** #define power_rtc_disable()             (PR_PRGEN |= (uint8_t)PR_RTC_bm)
 990:/usr/lib/avr/include/avr/power.h **** #endif
 991:/usr/lib/avr/include/avr/power.h **** 
 992:/usr/lib/avr/include/avr/power.h **** #if defined(__AVR_HAVE_PRGEN_USB)
 993:/usr/lib/avr/include/avr/power.h **** #define power_usb_enable()              (PR_PRGEN &= (uint8_t)~(PR_USB_bm))
 994:/usr/lib/avr/include/avr/power.h **** #define power_usb_disable()             (PR_PRGEN &= (uint8_t)(PR_USB_bm))
 995:/usr/lib/avr/include/avr/power.h **** #endif
 996:/usr/lib/avr/include/avr/power.h **** 
 997:/usr/lib/avr/include/avr/power.h **** #if defined(__AVR_HAVE_PRGEN_XCL)
 998:/usr/lib/avr/include/avr/power.h **** #define power_xcl_enable()              (PR_PRGEN &= (uint8_t)~(PR_XCL_bm))
 999:/usr/lib/avr/include/avr/power.h **** #define power_xcl_disable()             (PR_PRGEN |= (uint8_t)PR_XCL_bm)
1000:/usr/lib/avr/include/avr/power.h **** #endif
1001:/usr/lib/avr/include/avr/power.h **** 
1002:/usr/lib/avr/include/avr/power.h **** #if defined(__AVR_HAVE_PRPA_AC)
1003:/usr/lib/avr/include/avr/power.h **** #define power_aca_enable()      (PR_PRPA &= (uint8_t)~(PR_AC_bm))
1004:/usr/lib/avr/include/avr/power.h **** #define power_aca_disable()     (PR_PRPA |= (uint8_t)PR_AC_bm)
1005:/usr/lib/avr/include/avr/power.h **** #endif
1006:/usr/lib/avr/include/avr/power.h **** 
1007:/usr/lib/avr/include/avr/power.h **** #if defined(__AVR_HAVE_PRPA_ADC)
1008:/usr/lib/avr/include/avr/power.h **** #define power_adca_enable()     (PR_PRPA &= (uint8_t)~(PR_ADC_bm))
1009:/usr/lib/avr/include/avr/power.h **** #define power_adca_disable()    (PR_PRPA |= (uint8_t)PR_ADC_bm)
1010:/usr/lib/avr/include/avr/power.h **** #endif
1011:/usr/lib/avr/include/avr/power.h **** 
1012:/usr/lib/avr/include/avr/power.h **** #if defined(__AVR_HAVE_PRPA_DAC)
1013:/usr/lib/avr/include/avr/power.h **** #define power_daca_enable()     (PR_PRPA &= (uint8_t)~(PR_DAC_bm))
1014:/usr/lib/avr/include/avr/power.h **** #define power_daca_disable()    (PR_PRPA |= (uint8_t)PR_DAC_bm)
1015:/usr/lib/avr/include/avr/power.h **** #endif
1016:/usr/lib/avr/include/avr/power.h **** 
1017:/usr/lib/avr/include/avr/power.h **** #if defined(__AVR_HAVE_PRPB_AC)
1018:/usr/lib/avr/include/avr/power.h **** #define power_acb_enable()      (PR_PRPB &= (uint8_t)~(PR_AC_bm))
1019:/usr/lib/avr/include/avr/power.h **** #define power_acb_disable()     (PR_PRPB |= (uint8_t)PR_AC_bm)
1020:/usr/lib/avr/include/avr/power.h **** #endif
1021:/usr/lib/avr/include/avr/power.h **** 
1022:/usr/lib/avr/include/avr/power.h **** #if defined(__AVR_HAVE_PRPB_ADC)
1023:/usr/lib/avr/include/avr/power.h **** #define power_adcb_enable()     (PR_PRPB &= (uint8_t)~(PR_ADC_bm))
1024:/usr/lib/avr/include/avr/power.h **** #define power_adcb_disable()    (PR_PRPB |= (uint8_t)PR_ADC_bm)
1025:/usr/lib/avr/include/avr/power.h **** #endif
1026:/usr/lib/avr/include/avr/power.h **** 
1027:/usr/lib/avr/include/avr/power.h **** #if defined(__AVR_HAVE_PRPB_DAC)
1028:/usr/lib/avr/include/avr/power.h **** #define power_dacb_enable()     (PR_PRPB &= (uint8_t)~(PR_DAC_bm))
1029:/usr/lib/avr/include/avr/power.h **** #define power_dacb_disable()    (PR_PRPB |= (uint8_t)PR_DAC_bm)
1030:/usr/lib/avr/include/avr/power.h **** #endif
1031:/usr/lib/avr/include/avr/power.h **** 
1032:/usr/lib/avr/include/avr/power.h **** #if defined(__AVR_HAVE_PRPC_HIRES)
1033:/usr/lib/avr/include/avr/power.h **** #define power_hiresc_enable()   (PR_PRPC &= (uint8_t)~(PR_HIRES_bm))
1034:/usr/lib/avr/include/avr/power.h **** #define power_hiresc_disable()  (PR_PRPC |= (uint8_t)PR_HIRES_bm)
1035:/usr/lib/avr/include/avr/power.h **** #endif
1036:/usr/lib/avr/include/avr/power.h **** 
1037:/usr/lib/avr/include/avr/power.h **** #if defined(__AVR_HAVE_PRPC_SPI)
1038:/usr/lib/avr/include/avr/power.h **** #define power_spic_enable()     (PR_PRPC &= (uint8_t)~(PR_SPI_bm))
1039:/usr/lib/avr/include/avr/power.h **** #define power_spic_disable()    (PR_PRPC |= (uint8_t)PR_SPI_bm)
1040:/usr/lib/avr/include/avr/power.h **** #endif
1041:/usr/lib/avr/include/avr/power.h **** 
1042:/usr/lib/avr/include/avr/power.h **** #if defined(__AVR_HAVE_PRPC_TC0)
1043:/usr/lib/avr/include/avr/power.h **** #define power_tc0c_enable()     (PR_PRPC &= (uint8_t)~(PR_TC0_bm))
1044:/usr/lib/avr/include/avr/power.h **** #define power_tc0c_disable()    (PR_PRPC |= (uint8_t)PR_TC0_bm)
1045:/usr/lib/avr/include/avr/power.h **** #endif
1046:/usr/lib/avr/include/avr/power.h **** 
1047:/usr/lib/avr/include/avr/power.h **** #if defined(__AVR_HAVE_PRPC_TC1)
1048:/usr/lib/avr/include/avr/power.h **** #define power_tc1c_enable()     (PR_PRPC &= (uint8_t)~(PR_TC1_bm))
1049:/usr/lib/avr/include/avr/power.h **** #define power_tc1c_disable()    (PR_PRPC |= (uint8_t)PR_TC1_bm)
1050:/usr/lib/avr/include/avr/power.h **** #endif
1051:/usr/lib/avr/include/avr/power.h **** 
1052:/usr/lib/avr/include/avr/power.h **** #if defined(__AVR_HAVE_PRPC_TC4)
1053:/usr/lib/avr/include/avr/power.h **** #define power_tc4c_enable()     (PR_PRPC  &= (uint8_t)~(PR_TC4_bm))
1054:/usr/lib/avr/include/avr/power.h **** #define power_tc4c_disable()    (PR_PRPC  |= (uint8_t)PR_TC4_bm)
1055:/usr/lib/avr/include/avr/power.h **** #endif
1056:/usr/lib/avr/include/avr/power.h **** 
1057:/usr/lib/avr/include/avr/power.h **** #if defined(__AVR_HAVE_PRPC_TC5)
1058:/usr/lib/avr/include/avr/power.h **** #define power_tc5c_enable()     (PR_PRPC  &= (uint8_t)~(PR_TC5_bm))
1059:/usr/lib/avr/include/avr/power.h **** #define power_tc5c_disable()    (PR_PRPC  |= (uint8_t)PR_TC5_bm)
1060:/usr/lib/avr/include/avr/power.h **** #endif
1061:/usr/lib/avr/include/avr/power.h **** 
1062:/usr/lib/avr/include/avr/power.h **** #if defined(__AVR_HAVE_PRPC_TWI)
1063:/usr/lib/avr/include/avr/power.h **** #define power_twic_enable()     (PR_PRPC &= (uint8_t)~(PR_TWI_bm))
1064:/usr/lib/avr/include/avr/power.h **** #define power_twic_disable()    (PR_PRPC |= (uint8_t)PR_TWI_bm)
1065:/usr/lib/avr/include/avr/power.h **** #endif
1066:/usr/lib/avr/include/avr/power.h **** 
1067:/usr/lib/avr/include/avr/power.h **** #if defined(__AVR_HAVE_PRPC_USART0)
1068:/usr/lib/avr/include/avr/power.h **** #define power_usartc0_enable()  (PR_PRPC &= (uint8_t)~(PR_USART0_bm))
1069:/usr/lib/avr/include/avr/power.h **** #define power_usartc0_disable() (PR_PRPC |= (uint8_t)PR_USART0_bm)
1070:/usr/lib/avr/include/avr/power.h **** #endif
1071:/usr/lib/avr/include/avr/power.h **** 
1072:/usr/lib/avr/include/avr/power.h **** #if defined(__AVR_HAVE_PRPC_USART1)
1073:/usr/lib/avr/include/avr/power.h **** #define power_usartc1_enable()  (PR_PRPC &= (uint8_t)~(PR_USART1_bm))
1074:/usr/lib/avr/include/avr/power.h **** #define power_usartc1_disable() (PR_PRPC |= (uint8_t)PR_USART1_bm)
1075:/usr/lib/avr/include/avr/power.h **** #endif
1076:/usr/lib/avr/include/avr/power.h **** 
1077:/usr/lib/avr/include/avr/power.h **** #if defined(__AVR_HAVE_PRPD_HIRES)
1078:/usr/lib/avr/include/avr/power.h **** #define power_hiresd_enable()   (PR_PRPD &= (uint8_t)~(PR_HIRES_bm))
1079:/usr/lib/avr/include/avr/power.h **** #define power_hiresd_disable()  (PR_PRPD |= (uint8_t)PR_HIRES_bm)
1080:/usr/lib/avr/include/avr/power.h **** #endif
1081:/usr/lib/avr/include/avr/power.h **** 
1082:/usr/lib/avr/include/avr/power.h **** #if defined(__AVR_HAVE_PRPD_SPI)
1083:/usr/lib/avr/include/avr/power.h **** #define power_spid_enable()     (PR_PRPD &= (uint8_t)~(PR_SPI_bm))
1084:/usr/lib/avr/include/avr/power.h **** #define power_spid_disable()    (PR_PRPD |= (uint8_t)PR_SPI_bm)
1085:/usr/lib/avr/include/avr/power.h **** #endif
1086:/usr/lib/avr/include/avr/power.h **** 
1087:/usr/lib/avr/include/avr/power.h **** #if defined(__AVR_HAVE_PRPD_TC0)
1088:/usr/lib/avr/include/avr/power.h **** #define power_tc0d_enable()     (PR_PRPD &= (uint8_t)~(PR_TC0_bm))
1089:/usr/lib/avr/include/avr/power.h **** #define power_tc0d_disable()    (PR_PRPD |= (uint8_t)PR_TC0_bm)
1090:/usr/lib/avr/include/avr/power.h **** #endif
1091:/usr/lib/avr/include/avr/power.h **** 
1092:/usr/lib/avr/include/avr/power.h **** #if defined(__AVR_HAVE_PRPD_TC1)
1093:/usr/lib/avr/include/avr/power.h **** #define power_tc1d_enable()     (PR_PRPD &= (uint8_t)~(PR_TC1_bm))
1094:/usr/lib/avr/include/avr/power.h **** #define power_tc1d_disable()    (PR_PRPD |= (uint8_t)PR_TC1_bm)
1095:/usr/lib/avr/include/avr/power.h **** #endif
1096:/usr/lib/avr/include/avr/power.h **** 
1097:/usr/lib/avr/include/avr/power.h **** #if defined(__AVR_HAVE_PRPD_TC5)
1098:/usr/lib/avr/include/avr/power.h **** #define power_tc5d_enable()     (PR_PRPD  &= (uint8_t)~(PR_TC5_bm))
1099:/usr/lib/avr/include/avr/power.h **** #define power_tc5d_disable()    (PR_PRPD  |= (uint8_t)PR_TC5_bm)
1100:/usr/lib/avr/include/avr/power.h **** #endif
1101:/usr/lib/avr/include/avr/power.h **** 
1102:/usr/lib/avr/include/avr/power.h **** #if defined(__AVR_HAVE_PRPD_TWI)
1103:/usr/lib/avr/include/avr/power.h **** #define power_twid_enable()     (PR_PRPD &= (uint8_t)~(PR_TWI_bm))
1104:/usr/lib/avr/include/avr/power.h **** #define power_twid_disable()    (PR_PRPD |= (uint8_t)PR_TWI_bm)
1105:/usr/lib/avr/include/avr/power.h **** #endif
1106:/usr/lib/avr/include/avr/power.h **** 
1107:/usr/lib/avr/include/avr/power.h **** #if defined(__AVR_HAVE_PRPD_USART0)
1108:/usr/lib/avr/include/avr/power.h **** #define power_usartd0_enable()  (PR_PRPD &= (uint8_t)~(PR_USART0_bm))
1109:/usr/lib/avr/include/avr/power.h **** #define power_usartd0_disable() (PR_PRPD |= (uint8_t)PR_USART0_bm)
1110:/usr/lib/avr/include/avr/power.h **** #endif
1111:/usr/lib/avr/include/avr/power.h **** 
1112:/usr/lib/avr/include/avr/power.h **** #if defined(__AVR_HAVE_PRPD_USART1)
1113:/usr/lib/avr/include/avr/power.h **** #define power_usartd1_enable()  (PR_PRPD &= (uint8_t)~(PR_USART1_bm))
1114:/usr/lib/avr/include/avr/power.h **** #define power_usartd1_disable() (PR_PRPD |= (uint8_t)PR_USART1_bm)
1115:/usr/lib/avr/include/avr/power.h **** #endif
1116:/usr/lib/avr/include/avr/power.h **** 
1117:/usr/lib/avr/include/avr/power.h **** #if defined(__AVR_HAVE_PRPE_HIRES)
1118:/usr/lib/avr/include/avr/power.h **** #define power_hirese_enable()   (PR_PRPE &= (uint8_t)~(PR_HIRES_bm))
1119:/usr/lib/avr/include/avr/power.h **** #define power_hirese_disable()  (PR_PRPE |= (uint8_t)PR_HIRES_bm)
1120:/usr/lib/avr/include/avr/power.h **** #endif
1121:/usr/lib/avr/include/avr/power.h **** 
1122:/usr/lib/avr/include/avr/power.h **** #if defined(__AVR_HAVE_PRPE_SPI)
1123:/usr/lib/avr/include/avr/power.h **** #define power_spie_enable()     (PR_PRPE &= (uint8_t)~(PR_SPI_bm))
1124:/usr/lib/avr/include/avr/power.h **** #define power_spie_disable()    (PR_PRPE |= (uint8_t)PR_SPI_bm)
1125:/usr/lib/avr/include/avr/power.h **** #endif
1126:/usr/lib/avr/include/avr/power.h **** 
1127:/usr/lib/avr/include/avr/power.h **** #if defined(__AVR_HAVE_PRPE_TC0)
1128:/usr/lib/avr/include/avr/power.h **** #define power_tc0e_enable()     (PR_PRPE &= (uint8_t)~(PR_TC0_bm))
1129:/usr/lib/avr/include/avr/power.h **** #define power_tc0e_disable()    (PR_PRPE |= (uint8_t)PR_TC0_bm)
1130:/usr/lib/avr/include/avr/power.h **** #endif
1131:/usr/lib/avr/include/avr/power.h **** 
1132:/usr/lib/avr/include/avr/power.h **** #if defined(__AVR_HAVE_PRPE_TC1)
1133:/usr/lib/avr/include/avr/power.h **** #define power_tc1e_enable()     (PR_PRPE &= (uint8_t)~(PR_TC1_bm))
1134:/usr/lib/avr/include/avr/power.h **** #define power_tc1e_disable()    (PR_PRPE |= (uint8_t)PR_TC1_bm)
1135:/usr/lib/avr/include/avr/power.h **** #endif
1136:/usr/lib/avr/include/avr/power.h **** 
1137:/usr/lib/avr/include/avr/power.h **** #if defined(__AVR_HAVE_PRPE_TWI)
1138:/usr/lib/avr/include/avr/power.h **** #define power_twie_enable()     (PR_PRPE &= (uint8_t)~(PR_TWI_bm))
1139:/usr/lib/avr/include/avr/power.h **** #define power_twie_disable()    (PR_PRPE |= (uint8_t)PR_TWI_bm)
1140:/usr/lib/avr/include/avr/power.h **** #endif
1141:/usr/lib/avr/include/avr/power.h **** 
1142:/usr/lib/avr/include/avr/power.h **** #if defined(__AVR_HAVE_PRPE_USART0)
1143:/usr/lib/avr/include/avr/power.h **** #define power_usarte0_enable()  (PR_PRPE &= (uint8_t)~(PR_USART0_bm))
1144:/usr/lib/avr/include/avr/power.h **** #define power_usarte0_disable() (PR_PRPE |= (uint8_t)PR_USART0_bm)
1145:/usr/lib/avr/include/avr/power.h **** #endif
1146:/usr/lib/avr/include/avr/power.h **** 
1147:/usr/lib/avr/include/avr/power.h **** #if defined(__AVR_HAVE_PRPE_USART1)
1148:/usr/lib/avr/include/avr/power.h **** #define power_usarte1_enable()  (PR_PRPE &= (uint8_t)~(PR_USART1_bm))
1149:/usr/lib/avr/include/avr/power.h **** #define power_usarte1_disable() (PR_PRPE |= (uint8_t)PR_USART1_bm)
1150:/usr/lib/avr/include/avr/power.h **** #endif
1151:/usr/lib/avr/include/avr/power.h **** 
1152:/usr/lib/avr/include/avr/power.h **** #if defined(__AVR_HAVE_PRPF_HIRES)
1153:/usr/lib/avr/include/avr/power.h **** #define power_hiresf_enable()   (PR_PRPF &= (uint8_t)~(PR_HIRES_bm))
1154:/usr/lib/avr/include/avr/power.h **** #define power_hiresf_disable()  (PR_PRPF |= (uint8_t)PR_HIRES_bm)
1155:/usr/lib/avr/include/avr/power.h **** #endif
1156:/usr/lib/avr/include/avr/power.h **** 
1157:/usr/lib/avr/include/avr/power.h **** #if defined(__AVR_HAVE_PRPF_SPI)
1158:/usr/lib/avr/include/avr/power.h **** #define power_spif_enable()     (PR_PRPF &= (uint8_t)~(PR_SPI_bm))
1159:/usr/lib/avr/include/avr/power.h **** #define power_spif_disable()    (PR_PRPF |= (uint8_t)PR_SPI_bm)
1160:/usr/lib/avr/include/avr/power.h **** #endif
1161:/usr/lib/avr/include/avr/power.h **** 
1162:/usr/lib/avr/include/avr/power.h **** #if defined(__AVR_HAVE_PRPF_TC0)
1163:/usr/lib/avr/include/avr/power.h **** #define power_tc0f_enable()     (PR_PRPF &= (uint8_t)~(PR_TC0_bm))
1164:/usr/lib/avr/include/avr/power.h **** #define power_tc0f_disable()    (PR_PRPF |= (uint8_t)PR_TC0_bm)
1165:/usr/lib/avr/include/avr/power.h **** #endif
1166:/usr/lib/avr/include/avr/power.h **** 
1167:/usr/lib/avr/include/avr/power.h **** #if defined(__AVR_HAVE_PRPF_TC1)
1168:/usr/lib/avr/include/avr/power.h **** #define power_tc1f_enable()     (PR_PRPF &= (uint8_t)~(PR_TC1_bm))
1169:/usr/lib/avr/include/avr/power.h **** #define power_tc1f_disable()    (PR_PRPF |= (uint8_t)PR_TC1_bm)
1170:/usr/lib/avr/include/avr/power.h **** #endif
1171:/usr/lib/avr/include/avr/power.h **** 
1172:/usr/lib/avr/include/avr/power.h **** #if defined(__AVR_HAVE_PRPF_TWI)
1173:/usr/lib/avr/include/avr/power.h **** #define power_twif_enable()     (PR_PRPF &= (uint8_t)~(PR_TWI_bm))
1174:/usr/lib/avr/include/avr/power.h **** #define power_twif_disable()    (PR_PRPF |= (uint8_t)PR_TWI_bm)
1175:/usr/lib/avr/include/avr/power.h **** #endif
1176:/usr/lib/avr/include/avr/power.h **** 
1177:/usr/lib/avr/include/avr/power.h **** #if defined(__AVR_HAVE_PRPF_USART0)
1178:/usr/lib/avr/include/avr/power.h **** #define power_usartf0_enable()  (PR_PRPF &= (uint8_t)~(PR_USART0_bm))
1179:/usr/lib/avr/include/avr/power.h **** #define power_usartf0_disable() (PR_PRPF |= (uint8_t)PR_USART0_bm)
1180:/usr/lib/avr/include/avr/power.h **** #endif
1181:/usr/lib/avr/include/avr/power.h **** 
1182:/usr/lib/avr/include/avr/power.h **** #if defined(__AVR_HAVE_PRPF_USART1)
1183:/usr/lib/avr/include/avr/power.h **** #define power_usartf1_enable()  (PR_PRPF &= (uint8_t)~(PR_USART1_bm))
1184:/usr/lib/avr/include/avr/power.h **** #define power_usartf1_disable() (PR_PRPF |= (uint8_t)PR_USART1_bm)
1185:/usr/lib/avr/include/avr/power.h **** #endif
1186:/usr/lib/avr/include/avr/power.h **** 
1187:/usr/lib/avr/include/avr/power.h **** static __inline void
1188:/usr/lib/avr/include/avr/power.h **** __attribute__ ((__always_inline__))
1189:/usr/lib/avr/include/avr/power.h **** __power_all_enable()
1190:/usr/lib/avr/include/avr/power.h **** {
1191:/usr/lib/avr/include/avr/power.h **** #ifdef __AVR_HAVE_PRR
1192:/usr/lib/avr/include/avr/power.h ****     PRR &= (uint8_t)~(__AVR_HAVE_PRR);
1193:/usr/lib/avr/include/avr/power.h **** #endif
1194:/usr/lib/avr/include/avr/power.h **** 
1195:/usr/lib/avr/include/avr/power.h **** #ifdef __AVR_HAVE_PRR0
1196:/usr/lib/avr/include/avr/power.h ****     PRR0 &= (uint8_t)~(__AVR_HAVE_PRR0);
1197:/usr/lib/avr/include/avr/power.h **** #endif
1198:/usr/lib/avr/include/avr/power.h **** 
1199:/usr/lib/avr/include/avr/power.h **** #ifdef __AVR_HAVE_PRR1
1200:/usr/lib/avr/include/avr/power.h ****     PRR1 &= (uint8_t)~(__AVR_HAVE_PRR1);
1201:/usr/lib/avr/include/avr/power.h **** #endif
1202:/usr/lib/avr/include/avr/power.h **** 
1203:/usr/lib/avr/include/avr/power.h **** #ifdef __AVR_HAVE_PRR2
1204:/usr/lib/avr/include/avr/power.h ****    PRR2 &= (uint8_t)~(__AVR_HAVE_PRR2);
1205:/usr/lib/avr/include/avr/power.h **** #endif
1206:/usr/lib/avr/include/avr/power.h **** 
1207:/usr/lib/avr/include/avr/power.h **** #ifdef __AVR_HAVE_PRGEN
1208:/usr/lib/avr/include/avr/power.h ****     PR_PRGEN &= (uint8_t)~(__AVR_HAVE_PRGEN);
1209:/usr/lib/avr/include/avr/power.h **** #endif
1210:/usr/lib/avr/include/avr/power.h **** 
1211:/usr/lib/avr/include/avr/power.h **** #ifdef __AVR_HAVE_PRPA
1212:/usr/lib/avr/include/avr/power.h ****     PR_PRPA &= (uint8_t)~(__AVR_HAVE_PRPA);
1213:/usr/lib/avr/include/avr/power.h **** #endif
1214:/usr/lib/avr/include/avr/power.h **** 
1215:/usr/lib/avr/include/avr/power.h **** #ifdef __AVR_HAVE_PRPB
1216:/usr/lib/avr/include/avr/power.h ****     PR_PRPB &= (uint8_t)~(__AVR_HAVE_PRPB);
1217:/usr/lib/avr/include/avr/power.h **** #endif
1218:/usr/lib/avr/include/avr/power.h **** 
1219:/usr/lib/avr/include/avr/power.h **** #ifdef __AVR_HAVE_PRPC
1220:/usr/lib/avr/include/avr/power.h ****     PR_PRPC &= (uint8_t)~(__AVR_HAVE_PRPC);
1221:/usr/lib/avr/include/avr/power.h **** #endif
1222:/usr/lib/avr/include/avr/power.h **** 
1223:/usr/lib/avr/include/avr/power.h **** #ifdef __AVR_HAVE_PRPD
1224:/usr/lib/avr/include/avr/power.h ****     PR_PRPD &= (uint8_t)~(__AVR_HAVE_PRPD);
1225:/usr/lib/avr/include/avr/power.h **** #endif
1226:/usr/lib/avr/include/avr/power.h **** 
1227:/usr/lib/avr/include/avr/power.h **** #ifdef __AVR_HAVE_PRPE
1228:/usr/lib/avr/include/avr/power.h ****     PR_PRPE &= (uint8_t)~(__AVR_HAVE_PRPE);
1229:/usr/lib/avr/include/avr/power.h **** #endif
1230:/usr/lib/avr/include/avr/power.h **** 
1231:/usr/lib/avr/include/avr/power.h **** #ifdef __AVR_HAVE_PRPF
1232:/usr/lib/avr/include/avr/power.h ****     PR_PRPF &= (uint8_t)~(__AVR_HAVE_PRPF);
1233:/usr/lib/avr/include/avr/power.h **** #endif
1234:/usr/lib/avr/include/avr/power.h **** }
1235:/usr/lib/avr/include/avr/power.h **** 
1236:/usr/lib/avr/include/avr/power.h **** static __inline void
1237:/usr/lib/avr/include/avr/power.h **** __attribute__ ((__always_inline__))
1238:/usr/lib/avr/include/avr/power.h **** __power_all_disable()
1239:/usr/lib/avr/include/avr/power.h **** {
1240:/usr/lib/avr/include/avr/power.h **** #ifdef __AVR_HAVE_PRR
1241:/usr/lib/avr/include/avr/power.h ****     PRR |= (uint8_t)(__AVR_HAVE_PRR);
1242:/usr/lib/avr/include/avr/power.h **** #endif
1243:/usr/lib/avr/include/avr/power.h **** 
1244:/usr/lib/avr/include/avr/power.h **** #ifdef __AVR_HAVE_PRR0
1245:/usr/lib/avr/include/avr/power.h ****     PRR0 |= (uint8_t)(__AVR_HAVE_PRR0);
1246:/usr/lib/avr/include/avr/power.h **** #endif
1247:/usr/lib/avr/include/avr/power.h **** 
1248:/usr/lib/avr/include/avr/power.h **** #ifdef __AVR_HAVE_PRR1
1249:/usr/lib/avr/include/avr/power.h ****     PRR1 |= (uint8_t)(__AVR_HAVE_PRR1);
1250:/usr/lib/avr/include/avr/power.h **** #endif
1251:/usr/lib/avr/include/avr/power.h **** 
1252:/usr/lib/avr/include/avr/power.h **** #ifdef __AVR_HAVE_PRR2
1253:/usr/lib/avr/include/avr/power.h ****     PRR2 |= (uint8_t)(__AVR_HAVE_PRR2);
1254:/usr/lib/avr/include/avr/power.h **** #endif
1255:/usr/lib/avr/include/avr/power.h **** 
1256:/usr/lib/avr/include/avr/power.h **** #ifdef __AVR_HAVE_PRGEN
1257:/usr/lib/avr/include/avr/power.h ****     PR_PRGEN |= (uint8_t)(__AVR_HAVE_PRGEN);
1258:/usr/lib/avr/include/avr/power.h **** #endif
1259:/usr/lib/avr/include/avr/power.h **** 
1260:/usr/lib/avr/include/avr/power.h **** #ifdef __AVR_HAVE_PRPA
1261:/usr/lib/avr/include/avr/power.h ****     PR_PRPA |= (uint8_t)(__AVR_HAVE_PRPA);
1262:/usr/lib/avr/include/avr/power.h **** #endif
1263:/usr/lib/avr/include/avr/power.h **** 
1264:/usr/lib/avr/include/avr/power.h **** #ifdef __AVR_HAVE_PRPB
1265:/usr/lib/avr/include/avr/power.h ****     PR_PRPB |= (uint8_t)(__AVR_HAVE_PRPB);
1266:/usr/lib/avr/include/avr/power.h **** #endif
1267:/usr/lib/avr/include/avr/power.h **** 
1268:/usr/lib/avr/include/avr/power.h **** #ifdef __AVR_HAVE_PRPC
1269:/usr/lib/avr/include/avr/power.h ****     PR_PRPC |= (uint8_t)(__AVR_HAVE_PRPC);
1270:/usr/lib/avr/include/avr/power.h **** #endif
1271:/usr/lib/avr/include/avr/power.h **** 
1272:/usr/lib/avr/include/avr/power.h **** #ifdef __AVR_HAVE_PRPD
1273:/usr/lib/avr/include/avr/power.h ****     PR_PRPD |= (uint8_t)(__AVR_HAVE_PRPD);
1274:/usr/lib/avr/include/avr/power.h **** #endif
1275:/usr/lib/avr/include/avr/power.h **** 
1276:/usr/lib/avr/include/avr/power.h **** #ifdef __AVR_HAVE_PRPE
1277:/usr/lib/avr/include/avr/power.h ****     PR_PRPE |= (uint8_t)(__AVR_HAVE_PRPE);
1278:/usr/lib/avr/include/avr/power.h **** #endif
1279:/usr/lib/avr/include/avr/power.h **** 
1280:/usr/lib/avr/include/avr/power.h **** #ifdef __AVR_HAVE_PRPF
1281:/usr/lib/avr/include/avr/power.h ****     PR_PRPF |= (uint8_t)(__AVR_HAVE_PRPF);
1282:/usr/lib/avr/include/avr/power.h **** #endif
1283:/usr/lib/avr/include/avr/power.h **** }
1284:/usr/lib/avr/include/avr/power.h **** 
1285:/usr/lib/avr/include/avr/power.h **** #ifndef __DOXYGEN__
1286:/usr/lib/avr/include/avr/power.h **** #ifndef power_all_enable
1287:/usr/lib/avr/include/avr/power.h **** #define power_all_enable() __power_all_enable()
1288:/usr/lib/avr/include/avr/power.h **** #endif
1289:/usr/lib/avr/include/avr/power.h **** 
1290:/usr/lib/avr/include/avr/power.h **** #ifndef power_all_disable
1291:/usr/lib/avr/include/avr/power.h **** #define power_all_disable() __power_all_disable()
1292:/usr/lib/avr/include/avr/power.h **** #endif
1293:/usr/lib/avr/include/avr/power.h **** #endif	/* !__DOXYGEN__ */
1294:/usr/lib/avr/include/avr/power.h **** 
1295:/usr/lib/avr/include/avr/power.h **** 
1296:/usr/lib/avr/include/avr/power.h **** #if defined(__AVR_AT90CAN32__) \
1297:/usr/lib/avr/include/avr/power.h **** || defined(__AVR_AT90CAN64__) \
1298:/usr/lib/avr/include/avr/power.h **** || defined(__AVR_AT90CAN128__) \
1299:/usr/lib/avr/include/avr/power.h **** || defined(__AVR_AT90PWM1__) \
1300:/usr/lib/avr/include/avr/power.h **** || defined(__AVR_AT90PWM2__) \
1301:/usr/lib/avr/include/avr/power.h **** || defined(__AVR_AT90PWM2B__) \
1302:/usr/lib/avr/include/avr/power.h **** || defined(__AVR_AT90PWM3__) \
1303:/usr/lib/avr/include/avr/power.h **** || defined(__AVR_AT90PWM3B__) \
1304:/usr/lib/avr/include/avr/power.h **** || defined(__AVR_AT90PWM81__) \
1305:/usr/lib/avr/include/avr/power.h **** || defined(__AVR_AT90PWM161__) \
1306:/usr/lib/avr/include/avr/power.h **** || defined(__AVR_AT90PWM216__) \
1307:/usr/lib/avr/include/avr/power.h **** || defined(__AVR_AT90PWM316__) \
1308:/usr/lib/avr/include/avr/power.h **** || defined(__AVR_AT90SCR100__) \
1309:/usr/lib/avr/include/avr/power.h **** || defined(__AVR_AT90USB646__) \
1310:/usr/lib/avr/include/avr/power.h **** || defined(__AVR_AT90USB647__) \
1311:/usr/lib/avr/include/avr/power.h **** || defined(__AVR_AT90USB82__) \
1312:/usr/lib/avr/include/avr/power.h **** || defined(__AVR_AT90USB1286__) \
1313:/usr/lib/avr/include/avr/power.h **** || defined(__AVR_AT90USB1287__) \
1314:/usr/lib/avr/include/avr/power.h **** || defined(__AVR_AT90USB162__) \
1315:/usr/lib/avr/include/avr/power.h **** || defined(__AVR_ATA5505__) \
1316:/usr/lib/avr/include/avr/power.h **** || defined(__AVR_ATA5272__) \
1317:/usr/lib/avr/include/avr/power.h **** || defined(__AVR_ATA6617C__) \
1318:/usr/lib/avr/include/avr/power.h **** || defined(__AVR_ATA664251__) \
1319:/usr/lib/avr/include/avr/power.h **** || defined(__AVR_ATmega1280__) \
1320:/usr/lib/avr/include/avr/power.h **** || defined(__AVR_ATmega1281__) \
1321:/usr/lib/avr/include/avr/power.h **** || defined(__AVR_ATmega1284__) \
1322:/usr/lib/avr/include/avr/power.h **** || defined(__AVR_ATmega128RFA1__) \
1323:/usr/lib/avr/include/avr/power.h **** || defined(__AVR_ATmega1284RFR2__) \
1324:/usr/lib/avr/include/avr/power.h **** || defined(__AVR_ATmega128RFR2__) \
1325:/usr/lib/avr/include/avr/power.h **** || defined(__AVR_ATmega1284P__) \
1326:/usr/lib/avr/include/avr/power.h **** || defined(__AVR_ATmega162__) \
1327:/usr/lib/avr/include/avr/power.h **** || defined(__AVR_ATmega164A__) \
1328:/usr/lib/avr/include/avr/power.h **** || defined(__AVR_ATmega164P__) \
1329:/usr/lib/avr/include/avr/power.h **** || defined(__AVR_ATmega164PA__) \
1330:/usr/lib/avr/include/avr/power.h **** || defined(__AVR_ATmega165__) \
1331:/usr/lib/avr/include/avr/power.h **** || defined(__AVR_ATmega165A__) \
1332:/usr/lib/avr/include/avr/power.h **** || defined(__AVR_ATmega165P__) \
1333:/usr/lib/avr/include/avr/power.h **** || defined(__AVR_ATmega165PA__) \
1334:/usr/lib/avr/include/avr/power.h **** || defined(__AVR_ATmega168__) \
1335:/usr/lib/avr/include/avr/power.h **** || defined(__AVR_ATmega168A__) \
1336:/usr/lib/avr/include/avr/power.h **** || defined(__AVR_ATmega168P__) \
1337:/usr/lib/avr/include/avr/power.h **** || defined(__AVR_ATmega168PA__) \
1338:/usr/lib/avr/include/avr/power.h **** || defined(__AVR_ATmega168PB__) \
1339:/usr/lib/avr/include/avr/power.h **** || defined(__AVR_ATmega169__) \
1340:/usr/lib/avr/include/avr/power.h **** || defined(__AVR_ATmega169A__) \
1341:/usr/lib/avr/include/avr/power.h **** || defined(__AVR_ATmega169P__) \
1342:/usr/lib/avr/include/avr/power.h **** || defined(__AVR_ATmega169PA__) \
1343:/usr/lib/avr/include/avr/power.h **** || defined(__AVR_ATmega16M1__) \
1344:/usr/lib/avr/include/avr/power.h **** || defined(__AVR_ATmega16U2__) \
1345:/usr/lib/avr/include/avr/power.h **** || defined(__AVR_ATmega16U4__) \
1346:/usr/lib/avr/include/avr/power.h **** || defined(__AVR_ATmega2560__) \
1347:/usr/lib/avr/include/avr/power.h **** || defined(__AVR_ATmega2561__) \
1348:/usr/lib/avr/include/avr/power.h **** || defined(__AVR_ATmega2564RFR2__) \
1349:/usr/lib/avr/include/avr/power.h **** || defined(__AVR_ATmega256RFR2__) \
1350:/usr/lib/avr/include/avr/power.h **** || defined(__AVR_ATmega324A__) \
1351:/usr/lib/avr/include/avr/power.h **** || defined(__AVR_ATmega324P__) \
1352:/usr/lib/avr/include/avr/power.h **** || defined(__AVR_ATmega324PA__) \
1353:/usr/lib/avr/include/avr/power.h **** || defined(__AVR_ATmega325__) \
1354:/usr/lib/avr/include/avr/power.h **** || defined(__AVR_ATmega325A__) \
1355:/usr/lib/avr/include/avr/power.h **** || defined(__AVR_ATmega325P__) \
1356:/usr/lib/avr/include/avr/power.h **** || defined(__AVR_ATmega325PA__) \
1357:/usr/lib/avr/include/avr/power.h **** || defined(__AVR_ATmega3250__) \
1358:/usr/lib/avr/include/avr/power.h **** || defined(__AVR_ATmega3250A__) \
1359:/usr/lib/avr/include/avr/power.h **** || defined(__AVR_ATmega3250P__) \
1360:/usr/lib/avr/include/avr/power.h **** || defined(__AVR_ATmega3250PA__) \
1361:/usr/lib/avr/include/avr/power.h **** || defined(__AVR_ATmega328__) \
1362:/usr/lib/avr/include/avr/power.h **** || defined(__AVR_ATmega328P__) \
1363:/usr/lib/avr/include/avr/power.h **** || defined(__AVR_ATmega329__) \
1364:/usr/lib/avr/include/avr/power.h **** || defined(__AVR_ATmega329A__) \
1365:/usr/lib/avr/include/avr/power.h **** || defined(__AVR_ATmega329P__) \
1366:/usr/lib/avr/include/avr/power.h **** || defined(__AVR_ATmega329PA__) \
1367:/usr/lib/avr/include/avr/power.h **** || defined(__AVR_ATmega3290__) \
1368:/usr/lib/avr/include/avr/power.h **** || defined(__AVR_ATmega3290A__) \
1369:/usr/lib/avr/include/avr/power.h **** || defined(__AVR_ATmega3290P__) \
1370:/usr/lib/avr/include/avr/power.h **** || defined(__AVR_ATmega3290PA__) \
1371:/usr/lib/avr/include/avr/power.h **** || defined(__AVR_ATmega32C1__) \
1372:/usr/lib/avr/include/avr/power.h **** || defined(__AVR_ATmega32M1__) \
1373:/usr/lib/avr/include/avr/power.h **** || defined(__AVR_ATmega32U2__) \
1374:/usr/lib/avr/include/avr/power.h **** || defined(__AVR_ATmega32U4__) \
1375:/usr/lib/avr/include/avr/power.h **** || defined(__AVR_ATmega32U6__) \
1376:/usr/lib/avr/include/avr/power.h **** || defined(__AVR_ATmega48__) \
1377:/usr/lib/avr/include/avr/power.h **** || defined(__AVR_ATmega48A__) \
1378:/usr/lib/avr/include/avr/power.h **** || defined(__AVR_ATmega48PA__) \
1379:/usr/lib/avr/include/avr/power.h **** || defined(__AVR_ATmega48PB__) \
1380:/usr/lib/avr/include/avr/power.h **** || defined(__AVR_ATmega48P__) \
1381:/usr/lib/avr/include/avr/power.h **** || defined(__AVR_ATmega640__) \
1382:/usr/lib/avr/include/avr/power.h **** || defined(__AVR_ATmega649P__) \
1383:/usr/lib/avr/include/avr/power.h **** || defined(__AVR_ATmega644__) \
1384:/usr/lib/avr/include/avr/power.h **** || defined(__AVR_ATmega644A__) \
1385:/usr/lib/avr/include/avr/power.h **** || defined(__AVR_ATmega644P__) \
1386:/usr/lib/avr/include/avr/power.h **** || defined(__AVR_ATmega644PA__) \
1387:/usr/lib/avr/include/avr/power.h **** || defined(__AVR_ATmega645__) \
1388:/usr/lib/avr/include/avr/power.h **** || defined(__AVR_ATmega645A__) \
1389:/usr/lib/avr/include/avr/power.h **** || defined(__AVR_ATmega645P__) \
1390:/usr/lib/avr/include/avr/power.h **** || defined(__AVR_ATmega6450__) \
1391:/usr/lib/avr/include/avr/power.h **** || defined(__AVR_ATmega6450A__) \
1392:/usr/lib/avr/include/avr/power.h **** || defined(__AVR_ATmega6450P__) \
1393:/usr/lib/avr/include/avr/power.h **** || defined(__AVR_ATmega649__) \
1394:/usr/lib/avr/include/avr/power.h **** || defined(__AVR_ATmega649A__) \
1395:/usr/lib/avr/include/avr/power.h **** || defined(__AVR_ATmega64M1__) \
1396:/usr/lib/avr/include/avr/power.h **** || defined(__AVR_ATmega64C1__) \
1397:/usr/lib/avr/include/avr/power.h **** || defined(__AVR_ATmega88A__) \
1398:/usr/lib/avr/include/avr/power.h **** || defined(__AVR_ATmega88PA__) \
1399:/usr/lib/avr/include/avr/power.h **** || defined(__AVR_ATmega88PB__) \
1400:/usr/lib/avr/include/avr/power.h **** || defined(__AVR_ATmega6490__) \
1401:/usr/lib/avr/include/avr/power.h **** || defined(__AVR_ATmega6490A__) \
1402:/usr/lib/avr/include/avr/power.h **** || defined(__AVR_ATmega6490P__) \
1403:/usr/lib/avr/include/avr/power.h **** || defined(__AVR_ATmega644RFR2__) \
1404:/usr/lib/avr/include/avr/power.h **** || defined(__AVR_ATmega64RFR2__) \
1405:/usr/lib/avr/include/avr/power.h **** || defined(__AVR_ATmega88__) \
1406:/usr/lib/avr/include/avr/power.h **** || defined(__AVR_ATmega88P__) \
1407:/usr/lib/avr/include/avr/power.h **** || defined(__AVR_ATmega8U2__) \
1408:/usr/lib/avr/include/avr/power.h **** || defined(__AVR_ATmega16U2__) \
1409:/usr/lib/avr/include/avr/power.h **** || defined(__AVR_ATmega32U2__) \
1410:/usr/lib/avr/include/avr/power.h **** || defined(__AVR_ATtiny48__) \
1411:/usr/lib/avr/include/avr/power.h **** || defined(__AVR_ATtiny88__) \
1412:/usr/lib/avr/include/avr/power.h **** || defined(__AVR_ATtiny87__) \
1413:/usr/lib/avr/include/avr/power.h **** || defined(__AVR_ATtiny167__) \
1414:/usr/lib/avr/include/avr/power.h **** || defined(__DOXYGEN__)
1415:/usr/lib/avr/include/avr/power.h **** 
1416:/usr/lib/avr/include/avr/power.h **** 
1417:/usr/lib/avr/include/avr/power.h **** /** \addtogroup avr_power
1418:/usr/lib/avr/include/avr/power.h **** 
1419:/usr/lib/avr/include/avr/power.h **** Some of the newer AVRs contain a System Clock Prescale Register (CLKPR) that
1420:/usr/lib/avr/include/avr/power.h **** allows you to decrease the system clock frequency and the power consumption
1421:/usr/lib/avr/include/avr/power.h **** when the need for processing power is low.
1422:/usr/lib/avr/include/avr/power.h **** On some earlier AVRs (ATmega103, ATmega64, ATmega128), similar
1423:/usr/lib/avr/include/avr/power.h **** functionality can be achieved through the XTAL Divide Control Register.
1424:/usr/lib/avr/include/avr/power.h **** Below are two macros and an enumerated type that can be used to
1425:/usr/lib/avr/include/avr/power.h **** interface to the Clock Prescale Register or
1426:/usr/lib/avr/include/avr/power.h **** XTAL Divide Control Register.
1427:/usr/lib/avr/include/avr/power.h **** 
1428:/usr/lib/avr/include/avr/power.h **** \note Not all AVR devices have a clock prescaler. On those devices
1429:/usr/lib/avr/include/avr/power.h **** without a Clock Prescale Register or XTAL Divide Control Register, these
1430:/usr/lib/avr/include/avr/power.h **** macros are not available.
1431:/usr/lib/avr/include/avr/power.h **** */
1432:/usr/lib/avr/include/avr/power.h **** 
1433:/usr/lib/avr/include/avr/power.h **** 
1434:/usr/lib/avr/include/avr/power.h **** /** \addtogroup avr_power
1435:/usr/lib/avr/include/avr/power.h **** \code 
1436:/usr/lib/avr/include/avr/power.h **** typedef enum
1437:/usr/lib/avr/include/avr/power.h **** {
1438:/usr/lib/avr/include/avr/power.h ****     clock_div_1 = 0,
1439:/usr/lib/avr/include/avr/power.h ****     clock_div_2 = 1,
1440:/usr/lib/avr/include/avr/power.h ****     clock_div_4 = 2,
1441:/usr/lib/avr/include/avr/power.h ****     clock_div_8 = 3,
1442:/usr/lib/avr/include/avr/power.h ****     clock_div_16 = 4,
1443:/usr/lib/avr/include/avr/power.h ****     clock_div_32 = 5,
1444:/usr/lib/avr/include/avr/power.h ****     clock_div_64 = 6,
1445:/usr/lib/avr/include/avr/power.h ****     clock_div_128 = 7,
1446:/usr/lib/avr/include/avr/power.h ****     clock_div_256 = 8,
1447:/usr/lib/avr/include/avr/power.h ****     clock_div_1_rc = 15, // ATmega128RFA1 only
1448:/usr/lib/avr/include/avr/power.h **** } clock_div_t;
1449:/usr/lib/avr/include/avr/power.h **** \endcode
1450:/usr/lib/avr/include/avr/power.h **** Clock prescaler setting enumerations for device using
1451:/usr/lib/avr/include/avr/power.h **** System Clock Prescale Register.
1452:/usr/lib/avr/include/avr/power.h **** 
1453:/usr/lib/avr/include/avr/power.h **** \code
1454:/usr/lib/avr/include/avr/power.h **** typedef enum
1455:/usr/lib/avr/include/avr/power.h **** {
1456:/usr/lib/avr/include/avr/power.h ****     clock_div_1 = 1,
1457:/usr/lib/avr/include/avr/power.h ****     clock_div_2 = 2,
1458:/usr/lib/avr/include/avr/power.h ****     clock_div_4 = 4,
1459:/usr/lib/avr/include/avr/power.h ****     clock_div_8 = 8,
1460:/usr/lib/avr/include/avr/power.h ****     clock_div_16 = 16,
1461:/usr/lib/avr/include/avr/power.h ****     clock_div_32 = 32,
1462:/usr/lib/avr/include/avr/power.h ****     clock_div_64 = 64,
1463:/usr/lib/avr/include/avr/power.h ****     clock_div_128 = 128
1464:/usr/lib/avr/include/avr/power.h **** } clock_div_t;
1465:/usr/lib/avr/include/avr/power.h **** \endcode
1466:/usr/lib/avr/include/avr/power.h **** Clock prescaler setting enumerations for device using
1467:/usr/lib/avr/include/avr/power.h **** XTAL Divide Control Register.
1468:/usr/lib/avr/include/avr/power.h **** 
1469:/usr/lib/avr/include/avr/power.h **** */
1470:/usr/lib/avr/include/avr/power.h **** #ifndef __DOXYGEN__
1471:/usr/lib/avr/include/avr/power.h **** typedef enum
1472:/usr/lib/avr/include/avr/power.h **** {
1473:/usr/lib/avr/include/avr/power.h ****     clock_div_1 = 0,
1474:/usr/lib/avr/include/avr/power.h ****     clock_div_2 = 1,
1475:/usr/lib/avr/include/avr/power.h ****     clock_div_4 = 2,
1476:/usr/lib/avr/include/avr/power.h ****     clock_div_8 = 3,
1477:/usr/lib/avr/include/avr/power.h ****     clock_div_16 = 4,
1478:/usr/lib/avr/include/avr/power.h ****     clock_div_32 = 5,
1479:/usr/lib/avr/include/avr/power.h ****     clock_div_64 = 6,
1480:/usr/lib/avr/include/avr/power.h ****     clock_div_128 = 7,
1481:/usr/lib/avr/include/avr/power.h ****     clock_div_256 = 8
1482:/usr/lib/avr/include/avr/power.h **** #if defined(__AVR_ATmega128RFA1__) \
1483:/usr/lib/avr/include/avr/power.h **** || defined(__AVR_ATmega2564RFR2__) \
1484:/usr/lib/avr/include/avr/power.h **** || defined(__AVR_ATmega1284RFR2__) \
1485:/usr/lib/avr/include/avr/power.h **** || defined(__AVR_ATmega644RFR2__) \
1486:/usr/lib/avr/include/avr/power.h **** || defined(__AVR_ATmega256RFR2__) \
1487:/usr/lib/avr/include/avr/power.h **** || defined(__AVR_ATmega128RFR2__) \
1488:/usr/lib/avr/include/avr/power.h **** || defined(__AVR_ATmega64RFR2__)
1489:/usr/lib/avr/include/avr/power.h ****     , clock_div_1_rc = 15
1490:/usr/lib/avr/include/avr/power.h **** #endif
1491:/usr/lib/avr/include/avr/power.h **** } clock_div_t;
1492:/usr/lib/avr/include/avr/power.h **** 
1493:/usr/lib/avr/include/avr/power.h **** static __inline__ void clock_prescale_set(clock_div_t) __attribute__((__always_inline__));
1494:/usr/lib/avr/include/avr/power.h **** #endif	/* !__DOXYGEN__ */
1495:/usr/lib/avr/include/avr/power.h **** 
1496:/usr/lib/avr/include/avr/power.h **** /**
1497:/usr/lib/avr/include/avr/power.h ****    \ingroup avr_power
1498:/usr/lib/avr/include/avr/power.h ****    \fn clock_prescale_set(clock_div_t x)
1499:/usr/lib/avr/include/avr/power.h **** 
1500:/usr/lib/avr/include/avr/power.h **** Set the clock prescaler register select bits, selecting a system clock
1501:/usr/lib/avr/include/avr/power.h **** division setting. This function is inlined, even if compiler
1502:/usr/lib/avr/include/avr/power.h **** optimizations are disabled.
1503:/usr/lib/avr/include/avr/power.h **** 
1504:/usr/lib/avr/include/avr/power.h **** The type of \c x is \c clock_div_t.
1505:/usr/lib/avr/include/avr/power.h **** 
1506:/usr/lib/avr/include/avr/power.h **** \note For device with XTAL Divide Control Register (XDIV), \c x can actually range
1507:/usr/lib/avr/include/avr/power.h **** from 1 to 129. Thus, one does not need to use \c clock_div_t type as argument.
1508:/usr/lib/avr/include/avr/power.h **** */
1509:/usr/lib/avr/include/avr/power.h **** void clock_prescale_set(clock_div_t __x)
1510:/usr/lib/avr/include/avr/power.h **** {
1511:/usr/lib/avr/include/avr/power.h ****     uint8_t __tmp = _BV(CLKPCE);
1512:/usr/lib/avr/include/avr/power.h ****     __asm__ __volatile__ (
 1483               		.loc 4 1512 0
 1484 0024 40E8      		ldi r20,lo8(-128)
 1485 0026 20E0      		ldi r18,0
 1486               	/* #APP */
 1487               	 ;  1512 "/usr/lib/avr/include/avr/power.h" 1
 1488 0028 0FB6      		in __tmp_reg__,__SREG__
 1489 002a F894      		cli
 1490 002c 4093 6100 		sts 97, r20
 1491 0030 2093 6100 		sts 97, r18
 1492 0034 0FBE      		out __SREG__, __tmp_reg__
 1493               	 ;  0 "" 2
 1494               	.LVL120:
 1495               	/* #NOAPP */
 1496               	.LBE183:
 1497               	.LBE182:
 163:Caterina.c    **** 	MCUCR = (1 << IVSEL);
 1498               		.loc 1 163 0
 1499 0036 21E0      		ldi r18,lo8(1)
 1500 0038 25BF      		out 0x35,r18
 164:Caterina.c    **** 	
 1501               		.loc 1 164 0
 1502 003a 32E0      		ldi r19,lo8(2)
 1503 003c 35BF      		out 0x35,r19
 166:Caterina.c    **** 	CPU_PRESCALE(0); 
 1504               		.loc 1 166 0
 1505 003e 6E9A      		sbi 0xd,6
 167:Caterina.c    **** 	L_LED_OFF();
 1506               		.loc 1 167 0
 1507 0040 4093 6100 		sts 97,r20
 1508 0044 1092 6100 		sts 97,__zero_reg__
 168:Caterina.c    **** 	TX_LED_OFF();
 1509               		.loc 1 168 0
 1510 0048 7698      		cbi 0xe,6
 169:Caterina.c    **** 	RX_LED_OFF();
 1511               		.loc 1 169 0
 1512               	/* #APP */
 1513               	 ;  169 "Caterina.c" 1
 1514 004a 0000      		nop
 1515               	 ;  0 "" 2
 170:Caterina.c    **** 	
 1516               		.loc 1 170 0
 1517               	 ;  170 "Caterina.c" 1
 1518 004c 0000      		nop
 1519               	 ;  0 "" 2
 178:Caterina.c    **** 	OCR1AL = 250;
 1520               		.loc 1 178 0
 1521               	/* #NOAPP */
 1522 004e 1092 8900 		sts 137,__zero_reg__
 179:Caterina.c    **** 	TIMSK1 = (1 << OCIE1A);					// enable timer 1 output compare A match interrupt
 1523               		.loc 1 179 0
 1524 0052 4AEF      		ldi r20,lo8(-6)
 1525 0054 4093 8800 		sts 136,r20
 180:Caterina.c    **** 	TCCR1B = ((1 << CS11) | (1 << CS10));	// 1/64 prescaler on timer 1 input
 1526               		.loc 1 180 0
 1527 0058 3093 6F00 		sts 111,r19
 181:Caterina.c    **** 	
 1528               		.loc 1 181 0
 1529 005c 33E0      		ldi r19,lo8(3)
 1530 005e 3093 8100 		sts 129,r19
 1531               	.LVL121:
 1532               	.LBB184:
 185:Caterina.c    **** 	
 1533               		.loc 1 185 0
 1534 0062 E0E0      		ldi r30,0
 1535 0064 F0E0      		ldi r31,0
 1536               	/* #APP */
 1537               	 ;  185 "Caterina.c" 1
 1538 0066 4591      		lpm r20, Z+
 1539 0068 5491      		lpm r21, Z
 1540               		
 1541               	 ;  0 "" 2
 1542               	.LVL122:
 1543               	/* #NOAPP */
 1544               	.LBE184:
 1545 006a 4F3F      		cpi r20,-1
 1546 006c 5F4F      		sbci r21,-1
 1547 006e 01F0      		breq .L135
 185:Caterina.c    **** 	
 1548               		.loc 1 185 0 is_stmt 0 discriminator 1
 1549 0070 2093 0000 		sts sketchPresent,r18
 1550               	.L135:
 193:Caterina.c    **** 		*bootKeyPtr = bootKey;
 1551               		.loc 1 193 0 is_stmt 1
 1552 0074 81FF      		sbrs r24,1
 1553 0076 00C0      		rjmp .L136
 193:Caterina.c    **** 		*bootKeyPtr = bootKey;
 1554               		.loc 1 193 0 is_stmt 0 discriminator 1
 1555 0078 2091 0000 		lds r18,bootKey
 1556 007c 9217      		cp r25,r18
 1557 007e 01F0      		breq .L136
 194:Caterina.c    **** 		sei();
 1558               		.loc 1 194 0 is_stmt 1
 1559 0080 2093 0008 		sts 2048,r18
 195:Caterina.c    **** 		while (RunBootloader) 
 1560               		.loc 1 195 0
 1561               	/* #APP */
 1562               	 ;  195 "Caterina.c" 1
 1563 0084 7894      		sei
 1564               	 ;  0 "" 2
 1565               	/* #NOAPP */
 1566 0086 8091 0000 		lds r24,RunBootloader
 1567               	.LVL123:
 196:Caterina.c    **** 		{
 1568               		.loc 1 196 0
 1569 008a 8823      		tst r24
 1570 008c 01F0      		breq .L163
 1571               	.L157:
 198:Caterina.c    **** 				RunBootloader = false;
 1572               		.loc 1 198 0
 1573 008e 8091 0000 		lds r24,resetTimeout
 1574 0092 9091 0000 		lds r25,resetTimeout+1
 1575 0096 8837      		cpi r24,120
 1576 0098 9140      		sbci r25,1
 1577 009a 00F0      		brlo .L157
 1578               	.L163:
 1579 009c 1092 0000 		sts RunBootloader,__zero_reg__
 201:Caterina.c    **** 		*bootKeyPtr = 0;
 1580               		.loc 1 201 0
 1581               	/* #APP */
 1582               	 ;  201 "Caterina.c" 1
 1583 00a0 F894      		cli
 1584               	 ;  0 "" 2
 202:Caterina.c    **** 		RunBootloader = true;
 1585               		.loc 1 202 0
 1586               	/* #NOAPP */
 1587 00a2 1092 0008 		sts 2048,__zero_reg__
 203:Caterina.c    **** 		if (sketchPresent) StartSketch();
 1588               		.loc 1 203 0
 1589 00a6 81E0      		ldi r24,lo8(1)
 1590 00a8 8093 0000 		sts RunBootloader,r24
 1591               	.L164:
 204:Caterina.c    **** 	} 
 1592               		.loc 1 204 0
 1593 00ac 8091 0000 		lds r24,sketchPresent
 1594 00b0 8823      		tst r24
 1595 00b2 01F0      		breq .L140
 1596               	.L139:
 204:Caterina.c    **** 	} 
 1597               		.loc 1 204 0 is_stmt 0 discriminator 1
 1598 00b4 0E94 0000 		call StartSketch
 1599               	.LVL124:
 1600 00b8 00C0      		rjmp .L140
 1601               	.LVL125:
 1602               	.L136:
 207:Caterina.c    **** 		StartSketch();
 1603               		.loc 1 207 0 is_stmt 1
 1604 00ba 80FF      		sbrs r24,0
 1605 00bc 00C0      		rjmp .L141
 207:Caterina.c    **** 		StartSketch();
 1606               		.loc 1 207 0 is_stmt 0 discriminator 1
 1607 00be 2091 0000 		lds r18,sketchPresent
 1608 00c2 2111      		cpse r18,__zero_reg__
 1609 00c4 00C0      		rjmp .L139
 1610               	.L141:
 212:Caterina.c    **** 		// If it looks like an "accidental" watchdog reset then start the sketch.
 1611               		.loc 1 212 0 is_stmt 1
 1612 00c6 83FF      		sbrs r24,3
 1613 00c8 00C0      		rjmp .L140
 212:Caterina.c    **** 		// If it looks like an "accidental" watchdog reset then start the sketch.
 1614               		.loc 1 212 0 is_stmt 0 discriminator 1
 1615 00ca 8091 0000 		lds r24,bootKey
 1616               	.LVL126:
 1617 00ce 9813      		cpse r25,r24
 1618 00d0 00C0      		rjmp .L164
 1619               	.LVL127:
 1620               	.L140:
 220:Caterina.c    **** 
 1621               		.loc 1 220 0 is_stmt 1
 1622 00d2 0E94 0000 		call USB_Init
 1623               	.LVL128:
 223:Caterina.c    **** 	
 1624               		.loc 1 223 0
 1625               	/* #APP */
 1626               	 ;  223 "Caterina.c" 1
 1627 00d6 7894      		sei
 1628               	 ;  0 "" 2
 225:Caterina.c    **** 	
 1629               		.loc 1 225 0
 1630               	/* #NOAPP */
 1631 00d8 1092 0000 		sts Timeout+1,__zero_reg__
 1632 00dc 1092 0000 		sts Timeout,__zero_reg__
 1633               	.LBB185:
 239:Caterina.c    **** 		p += p;
 1634               		.loc 1 239 0
 1635 00e0 CEEF      		ldi r28,lo8(-2)
 1636               	.L143:
 1637               	.LBE185:
 227:Caterina.c    **** 	{
 1638               		.loc 1 227 0
 1639 00e2 8091 0000 		lds r24,RunBootloader
 1640 00e6 8823      		tst r24
 1641 00e8 01F0      		breq .L165
 1642               	.LBB186:
 229:Caterina.c    **** 		USB_USBTask();
 1643               		.loc 1 229 0
 1644 00ea 0E94 0000 		call CDC_Task
 1645               	.LVL129:
 230:Caterina.c    **** 		/* Time out and start the sketch if one is present */
 1646               		.loc 1 230 0
 1647 00ee 0E94 0000 		call USB_USBTask
 1648               	.LVL130:
 232:Caterina.c    **** 			RunBootloader = false;
 1649               		.loc 1 232 0
 1650 00f2 8091 0000 		lds r24,Timeout
 1651 00f6 9091 0000 		lds r25,Timeout+1
 1652 00fa 813A      		cpi r24,-95
 1653 00fc 9F40      		sbci r25,15
 1654 00fe 00F0      		brlo .L144
 233:Caterina.c    **** 			
 1655               		.loc 1 233 0
 1656 0100 1092 0000 		sts RunBootloader,__zero_reg__
 1657               	.L144:
 236:Caterina.c    **** 		uint8_t p = LLEDPulse >> 8;
 1658               		.loc 1 236 0
 1659 0104 8091 0000 		lds r24,LLEDPulse
 1660 0108 9091 0000 		lds r25,LLEDPulse+1
 1661 010c 0196      		adiw r24,1
 1662 010e 9093 0000 		sts LLEDPulse+1,r25
 1663 0112 8093 0000 		sts LLEDPulse,r24
 237:Caterina.c    **** 		if (p > 127)
 1664               		.loc 1 237 0
 1665 0116 292F      		mov r18,r25
 1666               	.LVL131:
 238:Caterina.c    **** 			p = 254-p;
 1667               		.loc 1 238 0
 1668 0118 97FF      		sbrs r25,7
 1669 011a 00C0      		rjmp .L145
 239:Caterina.c    **** 		p += p;
 1670               		.loc 1 239 0
 1671 011c 2C2F      		mov r18,r28
 1672 011e 291B      		sub r18,r25
 1673               	.LVL132:
 1674               	.L145:
 241:Caterina.c    **** 			L_LED_OFF();
 1675               		.loc 1 241 0
 1676 0120 9927      		clr r25
 1677 0122 220F      		lsl r18
 1678               	.LVL133:
 1679 0124 30E0      		ldi r19,0
 1680 0126 2817      		cp r18,r24
 1681 0128 3907      		cpc r19,r25
 1682 012a 04F4      		brge .L146
 242:Caterina.c    **** 		else
 1683               		.loc 1 242 0
 1684 012c 7698      		cbi 0xe,6
 1685 012e 00C0      		rjmp .L143
 1686               	.L146:
 244:Caterina.c    **** 	}
 1687               		.loc 1 244 0
 1688 0130 769A      		sbi 0xe,6
 1689 0132 00C0      		rjmp .L143
 1690               	.LVL134:
 1691               	.L165:
 1692               	.LBE186:
 1693               	.LBB187:
 1694               	.LBB188:
 1695               		.file 5 "../../LUFA-111009/LUFA/Drivers/USB/Core/AVR8/USBController_AVR8.h"
   1:../../LUFA-111009/LUFA/Drivers/USB/Core/AVR8/USBController_AVR8.h **** /*
   2:../../LUFA-111009/LUFA/Drivers/USB/Core/AVR8/USBController_AVR8.h ****              LUFA Library
   3:../../LUFA-111009/LUFA/Drivers/USB/Core/AVR8/USBController_AVR8.h ****      Copyright (C) Dean Camera, 2011.
   4:../../LUFA-111009/LUFA/Drivers/USB/Core/AVR8/USBController_AVR8.h **** 
   5:../../LUFA-111009/LUFA/Drivers/USB/Core/AVR8/USBController_AVR8.h ****   dean [at] fourwalledcubicle [dot] com
   6:../../LUFA-111009/LUFA/Drivers/USB/Core/AVR8/USBController_AVR8.h ****            www.lufa-lib.org
   7:../../LUFA-111009/LUFA/Drivers/USB/Core/AVR8/USBController_AVR8.h **** */
   8:../../LUFA-111009/LUFA/Drivers/USB/Core/AVR8/USBController_AVR8.h **** 
   9:../../LUFA-111009/LUFA/Drivers/USB/Core/AVR8/USBController_AVR8.h **** /*
  10:../../LUFA-111009/LUFA/Drivers/USB/Core/AVR8/USBController_AVR8.h ****   Copyright 2011  Dean Camera (dean [at] fourwalledcubicle [dot] com)
  11:../../LUFA-111009/LUFA/Drivers/USB/Core/AVR8/USBController_AVR8.h **** 
  12:../../LUFA-111009/LUFA/Drivers/USB/Core/AVR8/USBController_AVR8.h ****   Permission to use, copy, modify, distribute, and sell this
  13:../../LUFA-111009/LUFA/Drivers/USB/Core/AVR8/USBController_AVR8.h ****   software and its documentation for any purpose is hereby granted
  14:../../LUFA-111009/LUFA/Drivers/USB/Core/AVR8/USBController_AVR8.h ****   without fee, provided that the above copyright notice appear in
  15:../../LUFA-111009/LUFA/Drivers/USB/Core/AVR8/USBController_AVR8.h ****   all copies and that both that the copyright notice and this
  16:../../LUFA-111009/LUFA/Drivers/USB/Core/AVR8/USBController_AVR8.h ****   permission notice and warranty disclaimer appear in supporting
  17:../../LUFA-111009/LUFA/Drivers/USB/Core/AVR8/USBController_AVR8.h ****   documentation, and that the name of the author not be used in
  18:../../LUFA-111009/LUFA/Drivers/USB/Core/AVR8/USBController_AVR8.h ****   advertising or publicity pertaining to distribution of the
  19:../../LUFA-111009/LUFA/Drivers/USB/Core/AVR8/USBController_AVR8.h ****   software without specific, written prior permission.
  20:../../LUFA-111009/LUFA/Drivers/USB/Core/AVR8/USBController_AVR8.h **** 
  21:../../LUFA-111009/LUFA/Drivers/USB/Core/AVR8/USBController_AVR8.h ****   The author disclaim all warranties with regard to this
  22:../../LUFA-111009/LUFA/Drivers/USB/Core/AVR8/USBController_AVR8.h ****   software, including all implied warranties of merchantability
  23:../../LUFA-111009/LUFA/Drivers/USB/Core/AVR8/USBController_AVR8.h ****   and fitness.  In no event shall the author be liable for any
  24:../../LUFA-111009/LUFA/Drivers/USB/Core/AVR8/USBController_AVR8.h ****   special, indirect or consequential damages or any damages
  25:../../LUFA-111009/LUFA/Drivers/USB/Core/AVR8/USBController_AVR8.h ****   whatsoever resulting from loss of use, data or profits, whether
  26:../../LUFA-111009/LUFA/Drivers/USB/Core/AVR8/USBController_AVR8.h ****   in an action of contract, negligence or other tortious action,
  27:../../LUFA-111009/LUFA/Drivers/USB/Core/AVR8/USBController_AVR8.h ****   arising out of or in connection with the use or performance of
  28:../../LUFA-111009/LUFA/Drivers/USB/Core/AVR8/USBController_AVR8.h ****   this software.
  29:../../LUFA-111009/LUFA/Drivers/USB/Core/AVR8/USBController_AVR8.h **** */
  30:../../LUFA-111009/LUFA/Drivers/USB/Core/AVR8/USBController_AVR8.h **** 
  31:../../LUFA-111009/LUFA/Drivers/USB/Core/AVR8/USBController_AVR8.h **** /** \file
  32:../../LUFA-111009/LUFA/Drivers/USB/Core/AVR8/USBController_AVR8.h ****  *  \brief USB Controller definitions for the AVR8 microcontrollers.
  33:../../LUFA-111009/LUFA/Drivers/USB/Core/AVR8/USBController_AVR8.h ****  *  \copydetails Group_USBManagement_AVR8
  34:../../LUFA-111009/LUFA/Drivers/USB/Core/AVR8/USBController_AVR8.h ****  *
  35:../../LUFA-111009/LUFA/Drivers/USB/Core/AVR8/USBController_AVR8.h ****  *  \note This file should not be included directly. It is automatically included as needed by the 
  36:../../LUFA-111009/LUFA/Drivers/USB/Core/AVR8/USBController_AVR8.h ****  *        dispatch header located in LUFA/Drivers/USB/USB.h.
  37:../../LUFA-111009/LUFA/Drivers/USB/Core/AVR8/USBController_AVR8.h ****  */
  38:../../LUFA-111009/LUFA/Drivers/USB/Core/AVR8/USBController_AVR8.h **** 
  39:../../LUFA-111009/LUFA/Drivers/USB/Core/AVR8/USBController_AVR8.h **** /** \ingroup Group_USBManagement
  40:../../LUFA-111009/LUFA/Drivers/USB/Core/AVR8/USBController_AVR8.h ****  *  \defgroup Group_USBManagement_AVR8 USB Interface Management (AVR8)
  41:../../LUFA-111009/LUFA/Drivers/USB/Core/AVR8/USBController_AVR8.h ****  *  \brief USB Controller definitions for the AVR8 microcontrollers.
  42:../../LUFA-111009/LUFA/Drivers/USB/Core/AVR8/USBController_AVR8.h ****  *
  43:../../LUFA-111009/LUFA/Drivers/USB/Core/AVR8/USBController_AVR8.h ****  *  Functions, macros, variables, enums and types related to the setup and management of the USB in
  44:../../LUFA-111009/LUFA/Drivers/USB/Core/AVR8/USBController_AVR8.h ****  *
  45:../../LUFA-111009/LUFA/Drivers/USB/Core/AVR8/USBController_AVR8.h ****  *  @{
  46:../../LUFA-111009/LUFA/Drivers/USB/Core/AVR8/USBController_AVR8.h ****  */
  47:../../LUFA-111009/LUFA/Drivers/USB/Core/AVR8/USBController_AVR8.h **** 
  48:../../LUFA-111009/LUFA/Drivers/USB/Core/AVR8/USBController_AVR8.h **** #ifndef __USBCONTROLLER_AVR8_H__
  49:../../LUFA-111009/LUFA/Drivers/USB/Core/AVR8/USBController_AVR8.h **** #define __USBCONTROLLER_AVR8_H__
  50:../../LUFA-111009/LUFA/Drivers/USB/Core/AVR8/USBController_AVR8.h **** 
  51:../../LUFA-111009/LUFA/Drivers/USB/Core/AVR8/USBController_AVR8.h **** 	/* Includes: */
  52:../../LUFA-111009/LUFA/Drivers/USB/Core/AVR8/USBController_AVR8.h **** 		#include "../../../../Common/Common.h"
  53:../../LUFA-111009/LUFA/Drivers/USB/Core/AVR8/USBController_AVR8.h **** 		#include "../USBMode.h"
  54:../../LUFA-111009/LUFA/Drivers/USB/Core/AVR8/USBController_AVR8.h **** 		#include "../Events.h"
  55:../../LUFA-111009/LUFA/Drivers/USB/Core/AVR8/USBController_AVR8.h **** 		#include "../USBTask.h"
  56:../../LUFA-111009/LUFA/Drivers/USB/Core/AVR8/USBController_AVR8.h **** 		#include "../USBInterrupt.h"
  57:../../LUFA-111009/LUFA/Drivers/USB/Core/AVR8/USBController_AVR8.h **** 
  58:../../LUFA-111009/LUFA/Drivers/USB/Core/AVR8/USBController_AVR8.h **** 		#if defined(USB_CAN_BE_HOST) || defined(__DOXYGEN__)
  59:../../LUFA-111009/LUFA/Drivers/USB/Core/AVR8/USBController_AVR8.h **** 			#include "../Host.h"
  60:../../LUFA-111009/LUFA/Drivers/USB/Core/AVR8/USBController_AVR8.h **** 			#include "../OTG.h"
  61:../../LUFA-111009/LUFA/Drivers/USB/Core/AVR8/USBController_AVR8.h **** 			#include "../Pipe.h"
  62:../../LUFA-111009/LUFA/Drivers/USB/Core/AVR8/USBController_AVR8.h **** 			#include "../HostStandardReq.h"
  63:../../LUFA-111009/LUFA/Drivers/USB/Core/AVR8/USBController_AVR8.h **** 			#include "../PipeStream.h"
  64:../../LUFA-111009/LUFA/Drivers/USB/Core/AVR8/USBController_AVR8.h **** 		#endif
  65:../../LUFA-111009/LUFA/Drivers/USB/Core/AVR8/USBController_AVR8.h **** 
  66:../../LUFA-111009/LUFA/Drivers/USB/Core/AVR8/USBController_AVR8.h **** 		#if defined(USB_CAN_BE_DEVICE) || defined(__DOXYGEN__)
  67:../../LUFA-111009/LUFA/Drivers/USB/Core/AVR8/USBController_AVR8.h **** 			#include "../Device.h"
  68:../../LUFA-111009/LUFA/Drivers/USB/Core/AVR8/USBController_AVR8.h **** 			#include "../Endpoint.h"
  69:../../LUFA-111009/LUFA/Drivers/USB/Core/AVR8/USBController_AVR8.h **** 			#include "../DeviceStandardReq.h"
  70:../../LUFA-111009/LUFA/Drivers/USB/Core/AVR8/USBController_AVR8.h **** 			#include "../EndpointStream.h"
  71:../../LUFA-111009/LUFA/Drivers/USB/Core/AVR8/USBController_AVR8.h **** 		#endif
  72:../../LUFA-111009/LUFA/Drivers/USB/Core/AVR8/USBController_AVR8.h **** 
  73:../../LUFA-111009/LUFA/Drivers/USB/Core/AVR8/USBController_AVR8.h **** 	/* Enable C linkage for C++ Compilers: */
  74:../../LUFA-111009/LUFA/Drivers/USB/Core/AVR8/USBController_AVR8.h **** 		#if defined(__cplusplus)
  75:../../LUFA-111009/LUFA/Drivers/USB/Core/AVR8/USBController_AVR8.h **** 			extern "C" {
  76:../../LUFA-111009/LUFA/Drivers/USB/Core/AVR8/USBController_AVR8.h **** 		#endif
  77:../../LUFA-111009/LUFA/Drivers/USB/Core/AVR8/USBController_AVR8.h **** 
  78:../../LUFA-111009/LUFA/Drivers/USB/Core/AVR8/USBController_AVR8.h **** 	/* Preprocessor Checks and Defines: */
  79:../../LUFA-111009/LUFA/Drivers/USB/Core/AVR8/USBController_AVR8.h **** 		#if !defined(__INCLUDE_FROM_USB_DRIVER)
  80:../../LUFA-111009/LUFA/Drivers/USB/Core/AVR8/USBController_AVR8.h **** 			#error Do not include this file directly. Include LUFA/Drivers/USB/USB.h instead.
  81:../../LUFA-111009/LUFA/Drivers/USB/Core/AVR8/USBController_AVR8.h **** 		#endif
  82:../../LUFA-111009/LUFA/Drivers/USB/Core/AVR8/USBController_AVR8.h **** 
  83:../../LUFA-111009/LUFA/Drivers/USB/Core/AVR8/USBController_AVR8.h **** 		#if !defined(F_USB)
  84:../../LUFA-111009/LUFA/Drivers/USB/Core/AVR8/USBController_AVR8.h **** 			#error F_USB is not defined. You must define F_USB to the frequency of the unprescaled USB contr
  85:../../LUFA-111009/LUFA/Drivers/USB/Core/AVR8/USBController_AVR8.h **** 		#endif
  86:../../LUFA-111009/LUFA/Drivers/USB/Core/AVR8/USBController_AVR8.h **** 
  87:../../LUFA-111009/LUFA/Drivers/USB/Core/AVR8/USBController_AVR8.h **** 		#if (F_USB == 8000000)
  88:../../LUFA-111009/LUFA/Drivers/USB/Core/AVR8/USBController_AVR8.h **** 			#if (defined(__AVR_AT90USB82__) || defined(__AVR_AT90USB162__) || \
  89:../../LUFA-111009/LUFA/Drivers/USB/Core/AVR8/USBController_AVR8.h **** 			     defined(__AVR_ATmega8U2__) || defined(__AVR_ATmega16U2__) || \
  90:../../LUFA-111009/LUFA/Drivers/USB/Core/AVR8/USBController_AVR8.h **** 			     defined(__AVR_ATmega32U2__))
  91:../../LUFA-111009/LUFA/Drivers/USB/Core/AVR8/USBController_AVR8.h **** 				#define USB_PLL_PSC                0
  92:../../LUFA-111009/LUFA/Drivers/USB/Core/AVR8/USBController_AVR8.h **** 			#elif (defined(__AVR_ATmega16U4__) || defined(__AVR_ATmega32U4__))
  93:../../LUFA-111009/LUFA/Drivers/USB/Core/AVR8/USBController_AVR8.h **** 				#define USB_PLL_PSC                0
  94:../../LUFA-111009/LUFA/Drivers/USB/Core/AVR8/USBController_AVR8.h **** 			#elif (defined(__AVR_AT90USB646__)  || defined(__AVR_AT90USB1286__) || defined(__AVR_ATmega32U6_
  95:../../LUFA-111009/LUFA/Drivers/USB/Core/AVR8/USBController_AVR8.h **** 				#define USB_PLL_PSC                ((1 << PLLP1) | (1 << PLLP0))
  96:../../LUFA-111009/LUFA/Drivers/USB/Core/AVR8/USBController_AVR8.h **** 			#elif (defined(__AVR_AT90USB647__)  || defined(__AVR_AT90USB1287__))
  97:../../LUFA-111009/LUFA/Drivers/USB/Core/AVR8/USBController_AVR8.h **** 				#define USB_PLL_PSC                ((1 << PLLP1) | (1 << PLLP0))
  98:../../LUFA-111009/LUFA/Drivers/USB/Core/AVR8/USBController_AVR8.h **** 			#endif
  99:../../LUFA-111009/LUFA/Drivers/USB/Core/AVR8/USBController_AVR8.h **** 		#elif (F_USB == 16000000)
 100:../../LUFA-111009/LUFA/Drivers/USB/Core/AVR8/USBController_AVR8.h **** 			#if (defined(__AVR_AT90USB82__) || defined(__AVR_AT90USB162__) || \
 101:../../LUFA-111009/LUFA/Drivers/USB/Core/AVR8/USBController_AVR8.h **** 			     defined(__AVR_ATmega8U2__) || defined(__AVR_ATmega16U2__) || \
 102:../../LUFA-111009/LUFA/Drivers/USB/Core/AVR8/USBController_AVR8.h **** 			     defined(__AVR_ATmega32U2__))
 103:../../LUFA-111009/LUFA/Drivers/USB/Core/AVR8/USBController_AVR8.h **** 				#define USB_PLL_PSC                (1 << PLLP0)
 104:../../LUFA-111009/LUFA/Drivers/USB/Core/AVR8/USBController_AVR8.h **** 			#elif (defined(__AVR_ATmega16U4__) || defined(__AVR_ATmega32U4__))
 105:../../LUFA-111009/LUFA/Drivers/USB/Core/AVR8/USBController_AVR8.h **** 				#define USB_PLL_PSC                (1 << PINDIV)
 106:../../LUFA-111009/LUFA/Drivers/USB/Core/AVR8/USBController_AVR8.h **** 			#elif (defined(__AVR_AT90USB646__) || defined(__AVR_AT90USB647__) || defined(__AVR_ATmega32U6__)
 107:../../LUFA-111009/LUFA/Drivers/USB/Core/AVR8/USBController_AVR8.h **** 				#define USB_PLL_PSC                ((1 << PLLP2) | (1 << PLLP1))
 108:../../LUFA-111009/LUFA/Drivers/USB/Core/AVR8/USBController_AVR8.h **** 			#elif (defined(__AVR_AT90USB1286__) || defined(__AVR_AT90USB1287__))
 109:../../LUFA-111009/LUFA/Drivers/USB/Core/AVR8/USBController_AVR8.h **** 				#define USB_PLL_PSC                ((1 << PLLP2) | (1 << PLLP0))
 110:../../LUFA-111009/LUFA/Drivers/USB/Core/AVR8/USBController_AVR8.h **** 			#endif
 111:../../LUFA-111009/LUFA/Drivers/USB/Core/AVR8/USBController_AVR8.h **** 		#endif
 112:../../LUFA-111009/LUFA/Drivers/USB/Core/AVR8/USBController_AVR8.h **** 
 113:../../LUFA-111009/LUFA/Drivers/USB/Core/AVR8/USBController_AVR8.h **** 		#if !defined(USB_PLL_PSC)
 114:../../LUFA-111009/LUFA/Drivers/USB/Core/AVR8/USBController_AVR8.h **** 			#error No PLL prescale value available for chosen F_USB value and AVR model.
 115:../../LUFA-111009/LUFA/Drivers/USB/Core/AVR8/USBController_AVR8.h **** 		#endif
 116:../../LUFA-111009/LUFA/Drivers/USB/Core/AVR8/USBController_AVR8.h **** 
 117:../../LUFA-111009/LUFA/Drivers/USB/Core/AVR8/USBController_AVR8.h **** 	/* Public Interface - May be used in end-application: */
 118:../../LUFA-111009/LUFA/Drivers/USB/Core/AVR8/USBController_AVR8.h **** 		/* Macros: */
 119:../../LUFA-111009/LUFA/Drivers/USB/Core/AVR8/USBController_AVR8.h **** 			/** \name USB Controller Option Masks */
 120:../../LUFA-111009/LUFA/Drivers/USB/Core/AVR8/USBController_AVR8.h **** 			//@{
 121:../../LUFA-111009/LUFA/Drivers/USB/Core/AVR8/USBController_AVR8.h **** 			/** Regulator disable option mask for \ref USB_Init(). This indicates that the internal 3.3V USB
 122:../../LUFA-111009/LUFA/Drivers/USB/Core/AVR8/USBController_AVR8.h **** 			 *  regulator should be disabled and the AVR's VCC level used for the data pads.
 123:../../LUFA-111009/LUFA/Drivers/USB/Core/AVR8/USBController_AVR8.h **** 			 *
 124:../../LUFA-111009/LUFA/Drivers/USB/Core/AVR8/USBController_AVR8.h **** 			 *  \note See USB AVR data sheet for more information on the internal pad regulator.
 125:../../LUFA-111009/LUFA/Drivers/USB/Core/AVR8/USBController_AVR8.h **** 			 */
 126:../../LUFA-111009/LUFA/Drivers/USB/Core/AVR8/USBController_AVR8.h **** 			#define USB_OPT_REG_DISABLED               (1 << 1)
 127:../../LUFA-111009/LUFA/Drivers/USB/Core/AVR8/USBController_AVR8.h **** 
 128:../../LUFA-111009/LUFA/Drivers/USB/Core/AVR8/USBController_AVR8.h **** 			/** Regulator enable option mask for \ref USB_Init(). This indicates that the internal 3.3V USB 
 129:../../LUFA-111009/LUFA/Drivers/USB/Core/AVR8/USBController_AVR8.h **** 			 *  regulator should be enabled to regulate the data pin voltages from the VBUS level down to a 
 130:../../LUFA-111009/LUFA/Drivers/USB/Core/AVR8/USBController_AVR8.h **** 			 *  the range allowable by the USB standard.
 131:../../LUFA-111009/LUFA/Drivers/USB/Core/AVR8/USBController_AVR8.h **** 			 *
 132:../../LUFA-111009/LUFA/Drivers/USB/Core/AVR8/USBController_AVR8.h **** 			 *  \note See USB AVR data sheet for more information on the internal pad regulator.
 133:../../LUFA-111009/LUFA/Drivers/USB/Core/AVR8/USBController_AVR8.h **** 			 */
 134:../../LUFA-111009/LUFA/Drivers/USB/Core/AVR8/USBController_AVR8.h **** 			#define USB_OPT_REG_ENABLED                (0 << 1)
 135:../../LUFA-111009/LUFA/Drivers/USB/Core/AVR8/USBController_AVR8.h **** 
 136:../../LUFA-111009/LUFA/Drivers/USB/Core/AVR8/USBController_AVR8.h **** 			/** Manual PLL control option mask for \ref USB_Init(). This indicates to the library that the u
 137:../../LUFA-111009/LUFA/Drivers/USB/Core/AVR8/USBController_AVR8.h **** 			 *  will take full responsibility for controlling the AVR's PLL (used to generate the high frequ
 138:../../LUFA-111009/LUFA/Drivers/USB/Core/AVR8/USBController_AVR8.h **** 			 *  that the USB controller requires) and ensuring that it is locked at the correct frequency fo
 139:../../LUFA-111009/LUFA/Drivers/USB/Core/AVR8/USBController_AVR8.h **** 			 */
 140:../../LUFA-111009/LUFA/Drivers/USB/Core/AVR8/USBController_AVR8.h **** 			#define USB_OPT_MANUAL_PLL                 (1 << 2)
 141:../../LUFA-111009/LUFA/Drivers/USB/Core/AVR8/USBController_AVR8.h **** 
 142:../../LUFA-111009/LUFA/Drivers/USB/Core/AVR8/USBController_AVR8.h **** 			/** Automatic PLL control option mask for \ref USB_Init(). This indicates to the library that th
 143:../../LUFA-111009/LUFA/Drivers/USB/Core/AVR8/USBController_AVR8.h **** 			 *  take full responsibility for controlling the AVR's PLL (used to generate the high frequency 
 144:../../LUFA-111009/LUFA/Drivers/USB/Core/AVR8/USBController_AVR8.h **** 			 *  that the USB controller requires) and ensuring that it is locked at the correct frequency fo
 145:../../LUFA-111009/LUFA/Drivers/USB/Core/AVR8/USBController_AVR8.h **** 			 */
 146:../../LUFA-111009/LUFA/Drivers/USB/Core/AVR8/USBController_AVR8.h **** 			#define USB_OPT_AUTO_PLL                   (0 << 2)
 147:../../LUFA-111009/LUFA/Drivers/USB/Core/AVR8/USBController_AVR8.h **** 			//@}
 148:../../LUFA-111009/LUFA/Drivers/USB/Core/AVR8/USBController_AVR8.h **** 
 149:../../LUFA-111009/LUFA/Drivers/USB/Core/AVR8/USBController_AVR8.h **** 			#if !defined(USB_STREAM_TIMEOUT_MS) || defined(__DOXYGEN__)
 150:../../LUFA-111009/LUFA/Drivers/USB/Core/AVR8/USBController_AVR8.h **** 				/** Constant for the maximum software timeout period of the USB data stream transfer functions
 151:../../LUFA-111009/LUFA/Drivers/USB/Core/AVR8/USBController_AVR8.h **** 				 *  (both control and standard) when in either device or host mode. If the next packet of a str
 152:../../LUFA-111009/LUFA/Drivers/USB/Core/AVR8/USBController_AVR8.h **** 				 *  is not received or acknowledged within this time period, the stream function will fail.
 153:../../LUFA-111009/LUFA/Drivers/USB/Core/AVR8/USBController_AVR8.h **** 				 *
 154:../../LUFA-111009/LUFA/Drivers/USB/Core/AVR8/USBController_AVR8.h **** 				 *  This value may be overridden in the user project makefile as the value of the
 155:../../LUFA-111009/LUFA/Drivers/USB/Core/AVR8/USBController_AVR8.h **** 				 *  \ref USB_STREAM_TIMEOUT_MS token, and passed to the compiler using the -D switch.
 156:../../LUFA-111009/LUFA/Drivers/USB/Core/AVR8/USBController_AVR8.h **** 				 */
 157:../../LUFA-111009/LUFA/Drivers/USB/Core/AVR8/USBController_AVR8.h **** 				#define USB_STREAM_TIMEOUT_MS       100
 158:../../LUFA-111009/LUFA/Drivers/USB/Core/AVR8/USBController_AVR8.h **** 			#endif
 159:../../LUFA-111009/LUFA/Drivers/USB/Core/AVR8/USBController_AVR8.h **** 
 160:../../LUFA-111009/LUFA/Drivers/USB/Core/AVR8/USBController_AVR8.h **** 		/* Inline Functions: */
 161:../../LUFA-111009/LUFA/Drivers/USB/Core/AVR8/USBController_AVR8.h **** 			#if defined(USB_SERIES_4_AVR) || defined(USB_SERIES_6_AVR) || defined(USB_SERIES_7_AVR) || defin
 162:../../LUFA-111009/LUFA/Drivers/USB/Core/AVR8/USBController_AVR8.h **** 				/** Determines if the VBUS line is currently high (i.e. the USB host is supplying power).
 163:../../LUFA-111009/LUFA/Drivers/USB/Core/AVR8/USBController_AVR8.h **** 				 *
 164:../../LUFA-111009/LUFA/Drivers/USB/Core/AVR8/USBController_AVR8.h **** 				 *  \note This function is not available on some AVR models which do not support hardware VBUS 
 165:../../LUFA-111009/LUFA/Drivers/USB/Core/AVR8/USBController_AVR8.h **** 				 *
 166:../../LUFA-111009/LUFA/Drivers/USB/Core/AVR8/USBController_AVR8.h **** 				 *  \return Boolean \c true if the VBUS line is currently detecting power from a host, \c false
 167:../../LUFA-111009/LUFA/Drivers/USB/Core/AVR8/USBController_AVR8.h **** 				 */
 168:../../LUFA-111009/LUFA/Drivers/USB/Core/AVR8/USBController_AVR8.h **** 				static inline bool USB_VBUS_GetStatus(void) ATTR_WARN_UNUSED_RESULT ATTR_ALWAYS_INLINE;
 169:../../LUFA-111009/LUFA/Drivers/USB/Core/AVR8/USBController_AVR8.h **** 				static inline bool USB_VBUS_GetStatus(void)
 170:../../LUFA-111009/LUFA/Drivers/USB/Core/AVR8/USBController_AVR8.h **** 				{
 171:../../LUFA-111009/LUFA/Drivers/USB/Core/AVR8/USBController_AVR8.h **** 					return ((USBSTA & (1 << VBUS)) ? true : false);
 172:../../LUFA-111009/LUFA/Drivers/USB/Core/AVR8/USBController_AVR8.h **** 				}
 173:../../LUFA-111009/LUFA/Drivers/USB/Core/AVR8/USBController_AVR8.h **** 			#endif
 174:../../LUFA-111009/LUFA/Drivers/USB/Core/AVR8/USBController_AVR8.h **** 
 175:../../LUFA-111009/LUFA/Drivers/USB/Core/AVR8/USBController_AVR8.h **** 			/** Detaches the device from the USB bus. This has the effect of removing the device from any
 176:../../LUFA-111009/LUFA/Drivers/USB/Core/AVR8/USBController_AVR8.h **** 			 *  attached host, ceasing USB communications. If no host is present, this prevents any host fro
 177:../../LUFA-111009/LUFA/Drivers/USB/Core/AVR8/USBController_AVR8.h **** 			 *  enumerating the device once attached until \ref USB_Attach() is called.
 178:../../LUFA-111009/LUFA/Drivers/USB/Core/AVR8/USBController_AVR8.h **** 			 */
 179:../../LUFA-111009/LUFA/Drivers/USB/Core/AVR8/USBController_AVR8.h **** 			static inline void USB_Detach(void) ATTR_ALWAYS_INLINE;
 180:../../LUFA-111009/LUFA/Drivers/USB/Core/AVR8/USBController_AVR8.h **** 			static inline void USB_Detach(void)
 181:../../LUFA-111009/LUFA/Drivers/USB/Core/AVR8/USBController_AVR8.h **** 			{
 182:../../LUFA-111009/LUFA/Drivers/USB/Core/AVR8/USBController_AVR8.h **** 				UDCON  |=  (1 << DETACH);
 1696               		.loc 5 182 0
 1697 0134 8091 E000 		lds r24,224
 1698 0138 8160      		ori r24,lo8(1)
 1699 013a 8093 E000 		sts 224,r24
 1700               	.LBE188:
 1701               	.LBE187:
 251:Caterina.c    **** }
 1702               		.loc 1 251 0
 1703 013e 0E94 0000 		call StartSketch
 1704               	.LVL135:
 252:Caterina.c    **** 
 1705               		.loc 1 252 0
 1706 0142 80E0      		ldi r24,0
 1707 0144 90E0      		ldi r25,0
 1708               	/* epilogue start */
 1709 0146 CF91      		pop r28
 1710 0148 0895      		ret
 1711               		.cfi_endproc
 1712               	.LFE100:
 1714               		.comm	LLEDPulse,2,1
 1715               	.global	bootKeyPtr
 1716               		.section	.rodata
 1719               	bootKeyPtr:
 1720 0000 0008      		.word	2048
 1721               	.global	bootKey
 1722               		.data
 1725               	bootKey:
 1726 0000 77        		.byte	119
 1727               	.global	resetTimeout
 1728               		.section .bss
 1731               	resetTimeout:
 1732 0000 0000      		.zero	2
 1733               	.global	Timeout
 1736               	Timeout:
 1737 0002 0000      		.zero	2
 1738               	.global	RxLEDPulse
 1741               	RxLEDPulse:
 1742 0004 0000      		.zero	2
 1743               	.global	TxLEDPulse
 1746               	TxLEDPulse:
 1747 0006 0000      		.zero	2
 1748               		.local	sketchPresent
 1749               		.comm	sketchPresent,1,1
 1750               		.data
 1753               	RunBootloader:
 1754 0001 01        		.byte	1
 1755               		.local	CurrAddress
 1756               		.comm	CurrAddress,4,1
 1759               	LineEncoding:
 1760 0002 00        		.byte	0
 1761 0003 00        		.byte	0
 1762 0004 00        		.byte	0
 1763 0005 00        		.byte	0
 1764 0006 00        		.byte	0
 1765 0007 00        		.byte	0
 1766 0008 08        		.byte	8
 1767               		.text
 1768               	.Letext0:
 1769               		.file 6 "/usr/lib/avr/include/stdint.h"
 1770               		.file 7 "../../LUFA-111009/LUFA/Drivers/USB/Core/AVR8/../StdRequestType.h"
 1771               		.file 8 "../../LUFA-111009/LUFA/Drivers/USB/Core/AVR8/../Device.h"
 1772               		.file 9 "../../LUFA-111009/LUFA/Drivers/USB/Class/Device/../Common/CDC.h"
 1773               		.file 10 "../../LUFA-111009/LUFA/Drivers/USB/Core/USBTask.h"
 1774               		.file 11 "../../LUFA-111009/LUFA/Drivers/USB/Core/AVR8/../AVR8/EndpointStream_AVR8.h"
 1775               		.file 12 "/usr/lib/avr/include/avr/eeprom.h"
DEFINED SYMBOLS
                            *ABS*:0000000000000000 Caterina.c
     /tmp/ccxNkNIL.s:2      *ABS*:000000000000003e __SP_H__
     /tmp/ccxNkNIL.s:3      *ABS*:000000000000003d __SP_L__
     /tmp/ccxNkNIL.s:4      *ABS*:000000000000003f __SREG__
     /tmp/ccxNkNIL.s:5      *ABS*:0000000000000000 __tmp_reg__
     /tmp/ccxNkNIL.s:6      *ABS*:0000000000000001 __zero_reg__
     /tmp/ccxNkNIL.s:12     .text.FetchNextCommandByte:0000000000000000 FetchNextCommandByte
     /tmp/ccxNkNIL.s:78     .text.WriteNextResponseByte:0000000000000000 WriteNextResponseByte
     /tmp/ccxNkNIL.s:1746   .bss:0000000000000006 TxLEDPulse
     /tmp/ccxNkNIL.s:158    .text.StartSketch:0000000000000000 StartSketch
     /tmp/ccxNkNIL.s:204    .text.__vector_17:0000000000000000 __vector_17
     /tmp/ccxNkNIL.s:1741   .bss:0000000000000004 RxLEDPulse
     /tmp/ccxNkNIL.s:1731   .bss:0000000000000000 resetTimeout
     /tmp/ccxNkNIL.s:1736   .bss:0000000000000002 Timeout
     /tmp/ccxNkNIL.s:331    .text.EVENT_USB_Device_ConfigurationChanged:0000000000000000 EVENT_USB_Device_ConfigurationChanged
     /tmp/ccxNkNIL.s:374    .text.EVENT_USB_Device_ControlRequest:0000000000000000 EVENT_USB_Device_ControlRequest
     /tmp/ccxNkNIL.s:1759   .data:0000000000000002 LineEncoding
     /tmp/ccxNkNIL.s:459    .text.CDC_Task:0000000000000000 CDC_Task
     /tmp/ccxNkNIL.s:1749   .bss:0000000000000009 CurrAddress
     /tmp/ccxNkNIL.s:1438   .text.startup.main:0000000000000000 main
                             .bss:0000000000000008 sketchPresent
     /tmp/ccxNkNIL.s:1725   .data:0000000000000000 bootKey
     /tmp/ccxNkNIL.s:1753   .data:0000000000000001 RunBootloader
                            *COM*:0000000000000002 LLEDPulse
     /tmp/ccxNkNIL.s:1719   .rodata:0000000000000000 bootKeyPtr
     /tmp/ccxNkNIL.s:454    .rodata.str1.1:0000000000000000 .LC0

UNDEFINED SYMBOLS
Endpoint_ConfigureEndpoint_Prv
USB_ControlRequest
Endpoint_Write_Control_Stream_LE
Endpoint_Read_Control_Stream_LE
eeprom_read_byte
eeprom_write_byte
USB_Init
USB_USBTask
__do_copy_data
__do_clear_bss
